GAS LISTING C:\Users\SHERE_~1\AppData\Local\Temp/cc1ChbVl.s 			page 1


   1               		.file	"lcd.c"
   2               	__SREG__ = 0x3f
   3               	__SP_H__ = 0x3e
   4               	__SP_L__ = 0x3d
   5               	__CCP__  = 0x34
   6               	__tmp_reg__ = 0
   7               	__zero_reg__ = 1
   8               		.section	.debug_abbrev,"",@progbits
   9               	.Ldebug_abbrev0:
  10               		.section	.debug_info,"",@progbits
  11               	.Ldebug_info0:
  12               		.section	.debug_line,"",@progbits
  13               	.Ldebug_line0:
  14               		.text
  15               	.Ltext0:
  16               	.global	set_orientation
  17               		.type	set_orientation, @function
  18               	set_orientation:
  19               	.LFB3:
  20               	.LM1:
  21               	.LVL0:
  22               	/* prologue: function */
  23               	/* frame size = 0 */
  24 0000 9C01      		movw r18,r24
  25               	.LM2:
  26 0002 9093 0000 		sts (display+4)+1,r25
  27 0006 8093 0000 		sts display+4,r24
  28               	.LM3:
  29 000a 2C98      		cbi 37-32,4
  30 000c 86E3      		ldi r24,lo8(54)
  31               	.LVL1:
  32 000e 8BB9      		out 43-32,r24
  33 0010 2B98      		cbi 37-32,3
  34 0012 2B9A      		sbi 37-32,3
  35 0014 2C9A      		sbi 37-32,4
  36               	.LM4:
  37 0016 2115      		cp r18,__zero_reg__
  38 0018 3105      		cpc r19,__zero_reg__
  39 001a 01F4      		brne .L2
  40               	.LM5:
  41 001c 80EF      		ldi r24,lo8(240)
  42 001e 90E0      		ldi r25,hi8(240)
  43 0020 9093 0000 		sts (display)+1,r25
  44 0024 8093 0000 		sts display,r24
  45               	.LM6:
  46 0028 80E4      		ldi r24,lo8(320)
  47 002a 91E0      		ldi r25,hi8(320)
  48 002c 9093 0000 		sts (display+2)+1,r25
  49 0030 8093 0000 		sts display+2,r24
  50               	.LM7:
  51 0034 88E4      		ldi r24,lo8(72)
  52 0036 00C0      		rjmp .L7
  53               	.L2:
  54               	.LM8:
  55 0038 2130      		cpi r18,1
  56 003a 3105      		cpc r19,__zero_reg__
  57 003c 01F4      		brne .L4
GAS LISTING C:\Users\SHERE_~1\AppData\Local\Temp/cc1ChbVl.s 			page 2


  58               	.LM9:
  59 003e 80E4      		ldi r24,lo8(320)
  60 0040 91E0      		ldi r25,hi8(320)
  61 0042 9093 0000 		sts (display)+1,r25
  62 0046 8093 0000 		sts display,r24
  63               	.LM10:
  64 004a 80EF      		ldi r24,lo8(240)
  65 004c 90E0      		ldi r25,hi8(240)
  66 004e 9093 0000 		sts (display+2)+1,r25
  67 0052 8093 0000 		sts display+2,r24
  68               	.LM11:
  69 0056 88EE      		ldi r24,lo8(-24)
  70 0058 00C0      		rjmp .L7
  71               	.L4:
  72               	.LM12:
  73 005a 2230      		cpi r18,2
  74 005c 3105      		cpc r19,__zero_reg__
  75 005e 01F4      		brne .L5
  76               	.LM13:
  77 0060 80EF      		ldi r24,lo8(240)
  78 0062 90E0      		ldi r25,hi8(240)
  79 0064 9093 0000 		sts (display)+1,r25
  80 0068 8093 0000 		sts display,r24
  81               	.LM14:
  82 006c 80E4      		ldi r24,lo8(320)
  83 006e 91E0      		ldi r25,hi8(320)
  84 0070 9093 0000 		sts (display+2)+1,r25
  85 0074 8093 0000 		sts display+2,r24
  86               	.LM15:
  87 0078 88E8      		ldi r24,lo8(-120)
  88 007a 00C0      		rjmp .L7
  89               	.L5:
  90               	.LM16:
  91 007c 2330      		cpi r18,3
  92 007e 3105      		cpc r19,__zero_reg__
  93 0080 01F4      		brne .L3
  94               	.LM17:
  95 0082 80E4      		ldi r24,lo8(320)
  96 0084 91E0      		ldi r25,hi8(320)
  97 0086 9093 0000 		sts (display)+1,r25
  98 008a 8093 0000 		sts display,r24
  99               	.LM18:
 100 008e 80EF      		ldi r24,lo8(240)
 101 0090 90E0      		ldi r25,hi8(240)
 102 0092 9093 0000 		sts (display+2)+1,r25
 103 0096 8093 0000 		sts display+2,r24
 104               	.LM19:
 105 009a 88E2      		ldi r24,lo8(40)
 106               	.L7:
 107 009c 8BB9      		out 43-32,r24
 108 009e 2B98      		cbi 37-32,3
 109 00a0 2B9A      		sbi 37-32,3
 110               	.L3:
 111               	.LM20:
 112 00a2 2C98      		cbi 37-32,4
 113 00a4 8AE2      		ldi r24,lo8(42)
 114 00a6 8BB9      		out 43-32,r24
GAS LISTING C:\Users\SHERE_~1\AppData\Local\Temp/cc1ChbVl.s 			page 3


 115 00a8 2B98      		cbi 37-32,3
 116 00aa 2B9A      		sbi 37-32,3
 117 00ac 2C9A      		sbi 37-32,4
 118               	.LM21:
 119 00ae 1BB8      		out 43-32,__zero_reg__
 120 00b0 2B98      		cbi 37-32,3
 121 00b2 2B9A      		sbi 37-32,3
 122 00b4 1BB8      		out 43-32,__zero_reg__
 123 00b6 2B98      		cbi 37-32,3
 124 00b8 2B9A      		sbi 37-32,3
 125               	.LM22:
 126 00ba 8091 0000 		lds r24,display
 127 00be 9091 0000 		lds r25,(display)+1
 128 00c2 0197      		sbiw r24,1
 129 00c4 9BB9      		out 43-32,r25
 130 00c6 0196      		adiw r24,1
 131 00c8 2B98      		cbi 37-32,3
 132 00ca 2B9A      		sbi 37-32,3
 133 00cc 8150      		subi r24,lo8(-(-1))
 134 00ce 8BB9      		out 43-32,r24
 135 00d0 2B98      		cbi 37-32,3
 136 00d2 2B9A      		sbi 37-32,3
 137               	.LM23:
 138 00d4 2C98      		cbi 37-32,4
 139 00d6 8BE2      		ldi r24,lo8(43)
 140 00d8 8BB9      		out 43-32,r24
 141 00da 2B98      		cbi 37-32,3
 142 00dc 2B9A      		sbi 37-32,3
 143 00de 2C9A      		sbi 37-32,4
 144               	.LM24:
 145 00e0 1BB8      		out 43-32,__zero_reg__
 146 00e2 2B98      		cbi 37-32,3
 147 00e4 2B9A      		sbi 37-32,3
 148 00e6 1BB8      		out 43-32,__zero_reg__
 149 00e8 2B98      		cbi 37-32,3
 150 00ea 2B9A      		sbi 37-32,3
 151               	.LM25:
 152 00ec 8091 0000 		lds r24,display+2
 153 00f0 9091 0000 		lds r25,(display+2)+1
 154 00f4 0197      		sbiw r24,1
 155 00f6 9BB9      		out 43-32,r25
 156 00f8 0196      		adiw r24,1
 157 00fa 2B98      		cbi 37-32,3
 158 00fc 2B9A      		sbi 37-32,3
 159 00fe 8150      		subi r24,lo8(-(-1))
 160 0100 8BB9      		out 43-32,r24
 161 0102 2B98      		cbi 37-32,3
 162 0104 2B9A      		sbi 37-32,3
 163               	/* epilogue start */
 164               	.LM26:
 165 0106 0895      		ret
 166               	.LFE3:
 167               		.size	set_orientation, .-set_orientation
 168               	.global	get_orientation
 169               		.type	get_orientation, @function
 170               	get_orientation:
 171               	.LFB4:
GAS LISTING C:\Users\SHERE_~1\AppData\Local\Temp/cc1ChbVl.s 			page 4


 172               	.LM27:
 173               	/* prologue: function */
 174               	/* frame size = 0 */
 175               	.LM28:
 176 0108 8091 0000 		lds r24,display+4
 177 010c 9091 0000 		lds r25,display+5
 178               	/* epilogue start */
 179 0110 0895      		ret
 180               	.LFE4:
 181               		.size	get_orientation, .-get_orientation
 182               	.global	get_width
 183               		.type	get_width, @function
 184               	get_width:
 185               	.LFB5:
 186               	.LM29:
 187               	/* prologue: function */
 188               	/* frame size = 0 */
 189               	.LM30:
 190 0112 8091 0000 		lds r24,display
 191 0116 9091 0000 		lds r25,display+1
 192               	/* epilogue start */
 193 011a 0895      		ret
 194               	.LFE5:
 195               		.size	get_width, .-get_width
 196               	.global	get_height
 197               		.type	get_height, @function
 198               	get_height:
 199               	.LFB6:
 200               	.LM31:
 201               	/* prologue: function */
 202               	/* frame size = 0 */
 203               	.LM32:
 204 011c 8091 0000 		lds r24,display+2
 205 0120 9091 0000 		lds r25,display+3
 206               	/* epilogue start */
 207 0124 0895      		ret
 208               	.LFE6:
 209               		.size	get_height, .-get_height
 210               	.global	fill_rectangle
 211               		.type	fill_rectangle, @function
 212               	fill_rectangle:
 213               	.LFB7:
 214               	.LM33:
 215               	.LVL2:
 216 0126 EF92      		push r14
 217 0128 FF92      		push r15
 218 012a 0F93      		push r16
 219               	.LVL3:
 220 012c 1F93      		push r17
 221 012e DF93      		push r29
 222 0130 CF93      		push r28
 223 0132 CDB7      		in r28,__SP_L__
 224 0134 DEB7      		in r29,__SP_H__
 225 0136 2897      		sbiw r28,8
 226 0138 0FB6      		in __tmp_reg__,__SREG__
 227 013a F894      		cli
 228 013c DEBF      		out __SP_H__,r29
GAS LISTING C:\Users\SHERE_~1\AppData\Local\Temp/cc1ChbVl.s 			page 5


 229 013e 0FBE      		out __SREG__,__tmp_reg__
 230 0140 CDBF      		out __SP_L__,r28
 231               	/* prologue: function */
 232               	/* frame size = 8 */
 233 0142 F22F      		mov r31,r18
 234 0144 2983      		std Y+1,r18
 235 0146 E32F      		mov r30,r19
 236 0148 3A83      		std Y+2,r19
 237 014a 4B83      		std Y+3,r20
 238 014c 5C83      		std Y+4,r21
 239 014e 362F      		mov r19,r22
 240 0150 6D83      		std Y+5,r22
 241 0152 272F      		mov r18,r23
 242 0154 7E83      		std Y+6,r23
 243 0156 8F83      		std Y+7,r24
 244 0158 9887      		std Y+8,r25
 245 015a 7801      		movw r14,r16
 246               	.LM34:
 247 015c AB81      		ldd r26,Y+3
 248 015e BC81      		ldd r27,Y+4
 249 0160 062F      		mov r16,r22
 250 0162 172F      		mov r17,r23
 251 0164 6F81      		ldd r22,Y+7
 252 0166 7885      		ldd r23,Y+8
 253               	.LM35:
 254 0168 2C98      		cbi 37-32,4
 255 016a 8AE2      		ldi r24,lo8(42)
 256 016c 8BB9      		out 43-32,r24
 257 016e 2B98      		cbi 37-32,3
 258 0170 2B9A      		sbi 37-32,3
 259 0172 2C9A      		sbi 37-32,4
 260               	.LM36:
 261 0174 EBB9      		out 43-32,r30
 262 0176 2B98      		cbi 37-32,3
 263 0178 2B9A      		sbi 37-32,3
 264 017a FBB9      		out 43-32,r31
 265 017c 2B98      		cbi 37-32,3
 266 017e 2B9A      		sbi 37-32,3
 267               	.LM37:
 268 0180 BBB9      		out 43-32,r27
 269 0182 2B98      		cbi 37-32,3
 270 0184 2B9A      		sbi 37-32,3
 271 0186 ABB9      		out 43-32,r26
 272 0188 2B98      		cbi 37-32,3
 273 018a 2B9A      		sbi 37-32,3
 274               	.LM38:
 275 018c 2C98      		cbi 37-32,4
 276 018e 8BE2      		ldi r24,lo8(43)
 277 0190 8BB9      		out 43-32,r24
 278 0192 2B98      		cbi 37-32,3
 279 0194 2B9A      		sbi 37-32,3
 280 0196 2C9A      		sbi 37-32,4
 281               	.LM39:
 282 0198 2BB9      		out 43-32,r18
 283 019a 2B98      		cbi 37-32,3
 284 019c 2B9A      		sbi 37-32,3
 285 019e 3BB9      		out 43-32,r19
GAS LISTING C:\Users\SHERE_~1\AppData\Local\Temp/cc1ChbVl.s 			page 6


 286 01a0 2B98      		cbi 37-32,3
 287 01a2 2B9A      		sbi 37-32,3
 288               	.LM40:
 289 01a4 7BB9      		out 43-32,r23
 290 01a6 2B98      		cbi 37-32,3
 291 01a8 2B9A      		sbi 37-32,3
 292 01aa 6BB9      		out 43-32,r22
 293 01ac 2B98      		cbi 37-32,3
 294 01ae 2B9A      		sbi 37-32,3
 295               	.LM41:
 296 01b0 2C98      		cbi 37-32,4
 297 01b2 8CE2      		ldi r24,lo8(44)
 298 01b4 8BB9      		out 43-32,r24
 299 01b6 2B98      		cbi 37-32,3
 300 01b8 2B9A      		sbi 37-32,3
 301 01ba 2C9A      		sbi 37-32,4
 302               	.LM42:
 303 01bc 2F2F      		mov r18,r31
 304               	.LVL4:
 305 01be 3E2F      		mov r19,r30
 306               	.LVL5:
 307 01c0 C901      		movw r24,r18
 308               	.LVL6:
 309 01c2 AC01      		movw r20,r24
 310               	.LVL7:
 311 01c4 00C0      		rjmp .L15
 312               	.LVL8:
 313               	.L16:
 314               	.LM43:
 315 01c6 FBB8      		out 43-32,r15
 316               	.LM44:
 317 01c8 2B98      		cbi 37-32,3
 318 01ca 2B9A      		sbi 37-32,3
 319 01cc EBB8      		out 43-32,r14
 320 01ce 2B98      		cbi 37-32,3
 321 01d0 2B9A      		sbi 37-32,3
 322               	.LM45:
 323 01d2 2F5F      		subi r18,lo8(-(1))
 324 01d4 3F4F      		sbci r19,hi8(-(1))
 325               	.L18:
 326 01d6 6217      		cp r22,r18
 327 01d8 7307      		cpc r23,r19
 328 01da 00F4      		brsh .L16
 329               	.LM46:
 330 01dc 4F5F      		subi r20,lo8(-(1))
 331 01de 5F4F      		sbci r21,hi8(-(1))
 332               	.LVL9:
 333               	.L15:
 334 01e0 A417      		cp r26,r20
 335 01e2 B507      		cpc r27,r21
 336 01e4 00F0      		brlo .L19
 337 01e6 9801      		movw r18,r16
 338               	.LVL10:
 339 01e8 00C0      		rjmp .L18
 340               	.LVL11:
 341               	.L19:
 342               	/* epilogue start */
GAS LISTING C:\Users\SHERE_~1\AppData\Local\Temp/cc1ChbVl.s 			page 7


 343               	.LM47:
 344 01ea 2896      		adiw r28,8
 345 01ec 0FB6      		in __tmp_reg__,__SREG__
 346 01ee F894      		cli
 347 01f0 DEBF      		out __SP_H__,r29
 348 01f2 0FBE      		out __SREG__,__tmp_reg__
 349 01f4 CDBF      		out __SP_L__,r28
 350 01f6 CF91      		pop r28
 351 01f8 DF91      		pop r29
 352 01fa 1F91      		pop r17
 353 01fc 0F91      		pop r16
 354 01fe FF90      		pop r15
 355               	.LVL12:
 356 0200 EF90      		pop r14
 357               	.LVL13:
 358 0202 0895      		ret
 359               	.LFE7:
 360               		.size	fill_rectangle, .-fill_rectangle
 361               	.global	fill_rectangle_indexed
 362               		.type	fill_rectangle_indexed, @function
 363               	fill_rectangle_indexed:
 364               	.LFB8:
 365               	.LM48:
 366               	.LVL14:
 367 0204 EF92      		push r14
 368 0206 FF92      		push r15
 369 0208 0F93      		push r16
 370               	.LVL15:
 371 020a 1F93      		push r17
 372 020c DF93      		push r29
 373 020e CF93      		push r28
 374 0210 CDB7      		in r28,__SP_L__
 375 0212 DEB7      		in r29,__SP_H__
 376 0214 2897      		sbiw r28,8
 377 0216 0FB6      		in __tmp_reg__,__SREG__
 378 0218 F894      		cli
 379 021a DEBF      		out __SP_H__,r29
 380 021c 0FBE      		out __SREG__,__tmp_reg__
 381 021e CDBF      		out __SP_L__,r28
 382               	/* prologue: function */
 383               	/* frame size = 8 */
 384 0220 F22F      		mov r31,r18
 385 0222 2983      		std Y+1,r18
 386 0224 E32F      		mov r30,r19
 387 0226 3A83      		std Y+2,r19
 388 0228 4B83      		std Y+3,r20
 389 022a 5C83      		std Y+4,r21
 390 022c 362F      		mov r19,r22
 391 022e 6D83      		std Y+5,r22
 392 0230 272F      		mov r18,r23
 393 0232 7E83      		std Y+6,r23
 394 0234 8F83      		std Y+7,r24
 395 0236 9887      		std Y+8,r25
 396 0238 D801      		movw r26,r16
 397               	.LVL16:
 398               	.LM49:
 399 023a 0B81      		ldd r16,Y+3
GAS LISTING C:\Users\SHERE_~1\AppData\Local\Temp/cc1ChbVl.s 			page 8


 400 023c 1C81      		ldd r17,Y+4
 401               	.LVL17:
 402 023e E62E      		mov r14,r22
 403 0240 F72E      		mov r15,r23
 404 0242 6F81      		ldd r22,Y+7
 405 0244 7885      		ldd r23,Y+8
 406               	.LM50:
 407 0246 2C98      		cbi 37-32,4
 408 0248 8AE2      		ldi r24,lo8(42)
 409 024a 8BB9      		out 43-32,r24
 410 024c 2B98      		cbi 37-32,3
 411 024e 2B9A      		sbi 37-32,3
 412 0250 2C9A      		sbi 37-32,4
 413               	.LM51:
 414 0252 EBB9      		out 43-32,r30
 415 0254 2B98      		cbi 37-32,3
 416 0256 2B9A      		sbi 37-32,3
 417 0258 FBB9      		out 43-32,r31
 418 025a 2B98      		cbi 37-32,3
 419 025c 2B9A      		sbi 37-32,3
 420               	.LM52:
 421 025e 1BB9      		out 43-32,r17
 422 0260 2B98      		cbi 37-32,3
 423 0262 2B9A      		sbi 37-32,3
 424 0264 0BB9      		out 43-32,r16
 425 0266 2B98      		cbi 37-32,3
 426 0268 2B9A      		sbi 37-32,3
 427               	.LM53:
 428 026a 2C98      		cbi 37-32,4
 429 026c 8BE2      		ldi r24,lo8(43)
 430 026e 8BB9      		out 43-32,r24
 431 0270 2B98      		cbi 37-32,3
 432 0272 2B9A      		sbi 37-32,3
 433 0274 2C9A      		sbi 37-32,4
 434               	.LM54:
 435 0276 2BB9      		out 43-32,r18
 436 0278 2B98      		cbi 37-32,3
 437 027a 2B9A      		sbi 37-32,3
 438 027c 3BB9      		out 43-32,r19
 439 027e 2B98      		cbi 37-32,3
 440 0280 2B9A      		sbi 37-32,3
 441               	.LM55:
 442 0282 7BB9      		out 43-32,r23
 443 0284 2B98      		cbi 37-32,3
 444 0286 2B9A      		sbi 37-32,3
 445 0288 6BB9      		out 43-32,r22
 446 028a 2B98      		cbi 37-32,3
 447 028c 2B9A      		sbi 37-32,3
 448               	.LM56:
 449 028e 2C98      		cbi 37-32,4
 450 0290 8CE2      		ldi r24,lo8(44)
 451 0292 8BB9      		out 43-32,r24
 452 0294 2B98      		cbi 37-32,3
 453 0296 2B9A      		sbi 37-32,3
 454 0298 2C9A      		sbi 37-32,4
 455 029a 2F2F      		mov r18,r31
 456               	.LVL18:
GAS LISTING C:\Users\SHERE_~1\AppData\Local\Temp/cc1ChbVl.s 			page 9


 457 029c 3E2F      		mov r19,r30
 458               	.LVL19:
 459 029e C901      		movw r24,r18
 460               	.LVL20:
 461 02a0 AC01      		movw r20,r24
 462               	.LVL21:
 463 02a2 00C0      		rjmp .L21
 464               	.LVL22:
 465               	.L22:
 466               	.LM57:
 467 02a4 9C91      		ld r25,X
 468 02a6 1196      		adiw r26,1
 469 02a8 8C91      		ld r24,X
 470 02aa 1197      		sbiw r26,1
 471 02ac 8BB9      		out 43-32,r24
 472 02ae 2B98      		cbi 37-32,3
 473 02b0 2B9A      		sbi 37-32,3
 474 02b2 9BB9      		out 43-32,r25
 475 02b4 2B98      		cbi 37-32,3
 476 02b6 2B9A      		sbi 37-32,3
 477               	.LM58:
 478 02b8 1296      		adiw r26,2
 479               	.LM59:
 480 02ba 2F5F      		subi r18,lo8(-(1))
 481 02bc 3F4F      		sbci r19,hi8(-(1))
 482               	.LVL23:
 483               	.L24:
 484 02be 6217      		cp r22,r18
 485 02c0 7307      		cpc r23,r19
 486 02c2 00F4      		brsh .L22
 487               	.LM60:
 488 02c4 4F5F      		subi r20,lo8(-(1))
 489 02c6 5F4F      		sbci r21,hi8(-(1))
 490               	.LVL24:
 491               	.L21:
 492 02c8 0417      		cp r16,r20
 493 02ca 1507      		cpc r17,r21
 494 02cc 00F0      		brlo .L25
 495 02ce 9701      		movw r18,r14
 496               	.LVL25:
 497 02d0 00C0      		rjmp .L24
 498               	.LVL26:
 499               	.L25:
 500               	/* epilogue start */
 501               	.LM61:
 502 02d2 2896      		adiw r28,8
 503 02d4 0FB6      		in __tmp_reg__,__SREG__
 504 02d6 F894      		cli
 505 02d8 DEBF      		out __SP_H__,r29
 506 02da 0FBE      		out __SREG__,__tmp_reg__
 507 02dc CDBF      		out __SP_L__,r28
 508 02de CF91      		pop r28
 509 02e0 DF91      		pop r29
 510 02e2 1F91      		pop r17
 511 02e4 0F91      		pop r16
 512 02e6 FF90      		pop r15
 513 02e8 EF90      		pop r14
GAS LISTING C:\Users\SHERE_~1\AppData\Local\Temp/cc1ChbVl.s 			page 10


 514 02ea 0895      		ret
 515               	.LFE8:
 516               		.size	fill_rectangle_indexed, .-fill_rectangle_indexed
 517               	.global	fill_rectangle_indexed_scale
 518               		.type	fill_rectangle_indexed_scale, @function
 519               	fill_rectangle_indexed_scale:
 520               	.LFB9:
 521               	.LM62:
 522               	.LVL27:
 523 02ec 8F92      		push r8
 524 02ee 9F92      		push r9
 525 02f0 AF92      		push r10
 526 02f2 BF92      		push r11
 527 02f4 CF92      		push r12
 528 02f6 DF92      		push r13
 529 02f8 EF92      		push r14
 530               	.LVL28:
 531 02fa FF92      		push r15
 532 02fc 0F93      		push r16
 533               	.LVL29:
 534 02fe 1F93      		push r17
 535 0300 DF93      		push r29
 536 0302 CF93      		push r28
 537 0304 CDB7      		in r28,__SP_L__
 538 0306 DEB7      		in r29,__SP_H__
 539 0308 2897      		sbiw r28,8
 540 030a 0FB6      		in __tmp_reg__,__SREG__
 541 030c F894      		cli
 542 030e DEBF      		out __SP_H__,r29
 543 0310 0FBE      		out __SREG__,__tmp_reg__
 544 0312 CDBF      		out __SP_L__,r28
 545               	/* prologue: function */
 546               	/* frame size = 8 */
 547 0314 2983      		std Y+1,r18
 548 0316 3A83      		std Y+2,r19
 549 0318 4B83      		std Y+3,r20
 550 031a 5C83      		std Y+4,r21
 551 031c 6D83      		std Y+5,r22
 552 031e 7E83      		std Y+6,r23
 553 0320 8F83      		std Y+7,r24
 554 0322 9887      		std Y+8,r25
 555               	.LM63:
 556 0324 E981      		ldd r30,Y+1
 557 0326 FA81      		ldd r31,Y+2
 558 0328 6B81      		ldd r22,Y+3
 559 032a 7C81      		ldd r23,Y+4
 560 032c 4D81      		ldd r20,Y+5
 561 032e 5E81      		ldd r21,Y+6
 562 0330 2F81      		ldd r18,Y+7
 563 0332 3885      		ldd r19,Y+8
 564               	.LM64:
 565 0334 2C98      		cbi 37-32,4
 566 0336 8AE2      		ldi r24,lo8(42)
 567 0338 8BB9      		out 43-32,r24
 568 033a 2B98      		cbi 37-32,3
 569 033c 2B9A      		sbi 37-32,3
 570 033e 2C9A      		sbi 37-32,4
GAS LISTING C:\Users\SHERE_~1\AppData\Local\Temp/cc1ChbVl.s 			page 11


 571               	.LM65:
 572 0340 D701      		movw r26,r14
 573 0342 EE9E      		mul r14,r30
 574 0344 C001      		movw r24,r0
 575 0346 EF9E      		mul r14,r31
 576 0348 900D      		add r25,r0
 577 034a FE9E      		mul r15,r30
 578 034c 900D      		add r25,r0
 579 034e 1124      		clr r1
 580 0350 9BB9      		out 43-32,r25
 581 0352 2B98      		cbi 37-32,3
 582 0354 2B9A      		sbi 37-32,3
 583 0356 8BB9      		out 43-32,r24
 584 0358 2B98      		cbi 37-32,3
 585 035a 2B9A      		sbi 37-32,3
 586               	.LM66:
 587 035c E69E      		mul r14,r22
 588 035e C001      		movw r24,r0
 589 0360 E79E      		mul r14,r23
 590 0362 900D      		add r25,r0
 591 0364 F69E      		mul r15,r22
 592 0366 900D      		add r25,r0
 593 0368 1124      		clr r1
 594 036a 9BB9      		out 43-32,r25
 595 036c 2B98      		cbi 37-32,3
 596 036e 2B9A      		sbi 37-32,3
 597 0370 8BB9      		out 43-32,r24
 598 0372 2B98      		cbi 37-32,3
 599 0374 2B9A      		sbi 37-32,3
 600               	.LM67:
 601 0376 2C98      		cbi 37-32,4
 602 0378 8BE2      		ldi r24,lo8(43)
 603 037a 8BB9      		out 43-32,r24
 604 037c 2B98      		cbi 37-32,3
 605 037e 2B9A      		sbi 37-32,3
 606 0380 2C9A      		sbi 37-32,4
 607               	.LM68:
 608 0382 E49E      		mul r14,r20
 609 0384 C001      		movw r24,r0
 610 0386 E59E      		mul r14,r21
 611 0388 900D      		add r25,r0
 612 038a F49E      		mul r15,r20
 613 038c 900D      		add r25,r0
 614 038e 1124      		clr r1
 615 0390 9BB9      		out 43-32,r25
 616 0392 2B98      		cbi 37-32,3
 617 0394 2B9A      		sbi 37-32,3
 618 0396 8BB9      		out 43-32,r24
 619 0398 2B98      		cbi 37-32,3
 620 039a 2B9A      		sbi 37-32,3
 621               	.LM69:
 622 039c E29E      		mul r14,r18
 623 039e C001      		movw r24,r0
 624 03a0 E39E      		mul r14,r19
 625 03a2 900D      		add r25,r0
 626 03a4 F29E      		mul r15,r18
 627 03a6 900D      		add r25,r0
GAS LISTING C:\Users\SHERE_~1\AppData\Local\Temp/cc1ChbVl.s 			page 12


 628 03a8 1124      		clr r1
 629 03aa 9BB9      		out 43-32,r25
 630 03ac 2B98      		cbi 37-32,3
 631 03ae 2B9A      		sbi 37-32,3
 632 03b0 8BB9      		out 43-32,r24
 633 03b2 2B98      		cbi 37-32,3
 634 03b4 2B9A      		sbi 37-32,3
 635               	.LM70:
 636 03b6 2C98      		cbi 37-32,4
 637 03b8 8CE2      		ldi r24,lo8(44)
 638 03ba 8BB9      		out 43-32,r24
 639 03bc 2B98      		cbi 37-32,3
 640 03be 2B9A      		sbi 37-32,3
 641 03c0 2C9A      		sbi 37-32,4
 642               	.LM71:
 643 03c2 5901      		movw r10,r18
 644 03c4 A41A      		sub r10,r20
 645 03c6 B50A      		sbc r11,r21
 646 03c8 4501      		movw r8,r10
 647 03ca 880C      		lsl r8
 648 03cc 991C      		rol r9
 649 03ce 6801      		movw r12,r16
 650 03d0 EE24      		clr r14
 651 03d2 FF24      		clr r15
 652               	.LVL30:
 653               	.LM72:
 654 03d4 6E1B      		sub r22,r30
 655 03d6 7F0B      		sbc r23,r31
 656 03d8 00C0      		rjmp .L27
 657               	.LVL31:
 658               	.L29:
 659 03da 20E0      		ldi r18,lo8(0)
 660 03dc 30E0      		ldi r19,hi8(0)
 661               	.L28:
 662               	.LM73:
 663 03de 9081      		ld r25,Z
 664 03e0 8181      		ldd r24,Z+1
 665 03e2 8BB9      		out 43-32,r24
 666 03e4 2B98      		cbi 37-32,3
 667 03e6 2B9A      		sbi 37-32,3
 668 03e8 9BB9      		out 43-32,r25
 669 03ea 2B98      		cbi 37-32,3
 670 03ec 2B9A      		sbi 37-32,3
 671               	.LM74:
 672 03ee 2F5F      		subi r18,lo8(-(1))
 673 03f0 3F4F      		sbci r19,hi8(-(1))
 674 03f2 2A17      		cp r18,r26
 675 03f4 3B07      		cpc r19,r27
 676 03f6 00F0      		brlo .L28
 677               	.LM75:
 678 03f8 4F5F      		subi r20,lo8(-(1))
 679 03fa 5F4F      		sbci r21,hi8(-(1))
 680 03fc 3296      		adiw r30,2
 681               	.L31:
 682 03fe 4A15      		cp r20,r10
 683 0400 5B05      		cpc r21,r11
 684 0402 00F0      		brlo .L29
GAS LISTING C:\Users\SHERE_~1\AppData\Local\Temp/cc1ChbVl.s 			page 13


 685               	.LM76:
 686 0404 0F5F      		subi r16,lo8(-(1))
 687 0406 1F4F      		sbci r17,hi8(-(1))
 688               	.L33:
 689 0408 0A17      		cp r16,r26
 690 040a 1B07      		cpc r17,r27
 691 040c 00F4      		brsh .L30
 692 040e F601      		movw r30,r12
 693 0410 40E0      		ldi r20,lo8(0)
 694 0412 50E0      		ldi r21,hi8(0)
 695 0414 00C0      		rjmp .L31
 696               	.L30:
 697               	.LM77:
 698 0416 0894      		sec
 699 0418 E11C      		adc r14,__zero_reg__
 700 041a F11C      		adc r15,__zero_reg__
 701 041c C80C      		add r12,r8
 702 041e D91C      		adc r13,r9
 703               	.L27:
 704 0420 E616      		cp r14,r22
 705 0422 F706      		cpc r15,r23
 706 0424 00F4      		brsh .L34
 707 0426 00E0      		ldi r16,lo8(0)
 708 0428 10E0      		ldi r17,hi8(0)
 709 042a 00C0      		rjmp .L33
 710               	.L34:
 711               	/* epilogue start */
 712               	.LM78:
 713 042c 2896      		adiw r28,8
 714 042e 0FB6      		in __tmp_reg__,__SREG__
 715 0430 F894      		cli
 716 0432 DEBF      		out __SP_H__,r29
 717 0434 0FBE      		out __SREG__,__tmp_reg__
 718 0436 CDBF      		out __SP_L__,r28
 719 0438 CF91      		pop r28
 720 043a DF91      		pop r29
 721 043c 1F91      		pop r17
 722 043e 0F91      		pop r16
 723               	.LVL32:
 724 0440 FF90      		pop r15
 725 0442 EF90      		pop r14
 726               	.LVL33:
 727 0444 DF90      		pop r13
 728 0446 CF90      		pop r12
 729 0448 BF90      		pop r11
 730 044a AF90      		pop r10
 731 044c 9F90      		pop r9
 732 044e 8F90      		pop r8
 733 0450 0895      		ret
 734               	.LFE9:
 735               		.size	fill_rectangle_indexed_scale, .-fill_rectangle_indexed_scale
 736               	.global	fill_rectangle_bitmap
 737               		.type	fill_rectangle_bitmap, @function
 738               	fill_rectangle_bitmap:
 739               	.LFB10:
 740               	.LM79:
 741               	.LVL34:
GAS LISTING C:\Users\SHERE_~1\AppData\Local\Temp/cc1ChbVl.s 			page 14


 742 0452 4F92      		push r4
 743 0454 5F92      		push r5
 744 0456 6F92      		push r6
 745 0458 7F92      		push r7
 746 045a 8F92      		push r8
 747 045c 9F92      		push r9
 748 045e AF92      		push r10
 749 0460 BF92      		push r11
 750 0462 CF92      		push r12
 751               	.LVL35:
 752 0464 DF92      		push r13
 753 0466 EF92      		push r14
 754               	.LVL36:
 755 0468 FF92      		push r15
 756 046a 0F93      		push r16
 757               	.LVL37:
 758 046c 1F93      		push r17
 759 046e DF93      		push r29
 760 0470 CF93      		push r28
 761 0472 CDB7      		in r28,__SP_L__
 762 0474 DEB7      		in r29,__SP_H__
 763 0476 2897      		sbiw r28,8
 764 0478 0FB6      		in __tmp_reg__,__SREG__
 765 047a F894      		cli
 766 047c DEBF      		out __SP_H__,r29
 767 047e 0FBE      		out __SREG__,__tmp_reg__
 768 0480 CDBF      		out __SP_L__,r28
 769               	/* prologue: function */
 770               	/* frame size = 8 */
 771 0482 F22F      		mov r31,r18
 772 0484 2983      		std Y+1,r18
 773 0486 E32F      		mov r30,r19
 774 0488 3A83      		std Y+2,r19
 775 048a 4B83      		std Y+3,r20
 776 048c 5C83      		std Y+4,r21
 777 048e 6D83      		std Y+5,r22
 778 0490 7E83      		std Y+6,r23
 779 0492 8F83      		std Y+7,r24
 780 0494 9887      		std Y+8,r25
 781 0496 5801      		movw r10,r16
 782               	.LVL38:
 783 0498 3701      		movw r6,r14
 784 049a 4601      		movw r8,r12
 785               	.LM80:
 786 049c 0B81      		ldd r16,Y+3
 787 049e 1C81      		ldd r17,Y+4
 788               	.LVL39:
 789 04a0 C62E      		mov r12,r22
 790 04a2 D72E      		mov r13,r23
 791 04a4 AF81      		ldd r26,Y+7
 792 04a6 B885      		ldd r27,Y+8
 793               	.LM81:
 794 04a8 2C98      		cbi 37-32,4
 795 04aa 8AE2      		ldi r24,lo8(42)
 796 04ac 8BB9      		out 43-32,r24
 797 04ae 2B98      		cbi 37-32,3
 798 04b0 2B9A      		sbi 37-32,3
GAS LISTING C:\Users\SHERE_~1\AppData\Local\Temp/cc1ChbVl.s 			page 15


 799 04b2 2C9A      		sbi 37-32,4
 800               	.LM82:
 801 04b4 EBB9      		out 43-32,r30
 802 04b6 2B98      		cbi 37-32,3
 803 04b8 2B9A      		sbi 37-32,3
 804 04ba FBB9      		out 43-32,r31
 805 04bc 2B98      		cbi 37-32,3
 806 04be 2B9A      		sbi 37-32,3
 807               	.LM83:
 808 04c0 1BB9      		out 43-32,r17
 809 04c2 2B98      		cbi 37-32,3
 810 04c4 2B9A      		sbi 37-32,3
 811 04c6 0BB9      		out 43-32,r16
 812 04c8 2B98      		cbi 37-32,3
 813 04ca 2B9A      		sbi 37-32,3
 814               	.LM84:
 815 04cc 2C98      		cbi 37-32,4
 816 04ce 8BE2      		ldi r24,lo8(43)
 817 04d0 8BB9      		out 43-32,r24
 818 04d2 2B98      		cbi 37-32,3
 819 04d4 2B9A      		sbi 37-32,3
 820 04d6 2C9A      		sbi 37-32,4
 821               	.LM85:
 822 04d8 7BB9      		out 43-32,r23
 823 04da 2B98      		cbi 37-32,3
 824 04dc 2B9A      		sbi 37-32,3
 825 04de 6BB9      		out 43-32,r22
 826 04e0 2B98      		cbi 37-32,3
 827 04e2 2B9A      		sbi 37-32,3
 828               	.LM86:
 829 04e4 BBB9      		out 43-32,r27
 830 04e6 2B98      		cbi 37-32,3
 831 04e8 2B9A      		sbi 37-32,3
 832 04ea ABB9      		out 43-32,r26
 833 04ec 2B98      		cbi 37-32,3
 834 04ee 2B9A      		sbi 37-32,3
 835               	.LM87:
 836 04f0 2C98      		cbi 37-32,4
 837 04f2 8CE2      		ldi r24,lo8(44)
 838 04f4 8BB9      		out 43-32,r24
 839 04f6 2B98      		cbi 37-32,3
 840 04f8 2B9A      		sbi 37-32,3
 841 04fa 2C9A      		sbi 37-32,4
 842               	.LM88:
 843 04fc 2F2F      		mov r18,r31
 844               	.LVL40:
 845 04fe 3E2F      		mov r19,r30
 846               	.LVL41:
 847 0500 C901      		movw r24,r18
 848               	.LVL42:
 849 0502 2C01      		movw r4,r24
 850               	.LVL43:
 851 0504 40E0      		ldi r20,lo8(0)
 852 0506 50E0      		ldi r21,hi8(0)
 853               	.LVL44:
 854               	.LM89:
 855 0508 91E0      		ldi r25,lo8(1)
GAS LISTING C:\Users\SHERE_~1\AppData\Local\Temp/cc1ChbVl.s 			page 16


 856 050a E92E      		mov r14,r25
 857 050c F12C      		mov r15,__zero_reg__
 858 050e 00C0      		rjmp .L37
 859               	.LVL45:
 860               	.L41:
 861 0510 C701      		movw r24,r14
 862 0512 042E      		mov r0,r20
 863 0514 00C0      		rjmp 2f
 864 0516 880F      	1:	lsl r24
 865 0518 991F      		rol r25
 866 051a 0A94      	2:	dec r0
 867 051c 02F4      		brpl 1b
 868 051e F501      		movw r30,r10
 869 0520 2081      		ld r18,Z
 870 0522 3181      		ldd r19,Z+1
 871 0524 8223      		and r24,r18
 872 0526 9323      		and r25,r19
 873 0528 892B      		or r24,r25
 874 052a 01F0      		breq .L38
 875               	.LM90:
 876 052c 7BB8      		out 43-32,r7
 877 052e 2B98      		cbi 37-32,3
 878 0530 2B9A      		sbi 37-32,3
 879 0532 6BB8      		out 43-32,r6
 880 0534 00C0      		rjmp .L45
 881               	.L38:
 882               	.LM91:
 883 0536 9BB8      		out 43-32,r9
 884 0538 2B98      		cbi 37-32,3
 885 053a 2B9A      		sbi 37-32,3
 886 053c 8BB8      		out 43-32,r8
 887               	.L45:
 888 053e 2B98      		cbi 37-32,3
 889 0540 2B9A      		sbi 37-32,3
 890               	.LM92:
 891 0542 4F5F      		subi r20,lo8(-(1))
 892 0544 5F4F      		sbci r21,hi8(-(1))
 893 0546 4031      		cpi r20,16
 894 0548 5105      		cpc r21,__zero_reg__
 895 054a 01F4      		brne .L40
 896               	.LM93:
 897 054c 82E0      		ldi r24,lo8(2)
 898 054e 90E0      		ldi r25,hi8(2)
 899 0550 A80E      		add r10,r24
 900 0552 B91E      		adc r11,r25
 901 0554 40E0      		ldi r20,lo8(0)
 902 0556 50E0      		ldi r21,hi8(0)
 903               	.L40:
 904               	.LM94:
 905 0558 6F5F      		subi r22,lo8(-(1))
 906 055a 7F4F      		sbci r23,hi8(-(1))
 907               	.LVL46:
 908               	.L43:
 909 055c A617      		cp r26,r22
 910 055e B707      		cpc r27,r23
 911 0560 00F4      		brsh .L41
 912               	.LM95:
GAS LISTING C:\Users\SHERE_~1\AppData\Local\Temp/cc1ChbVl.s 			page 17


 913 0562 0894      		sec
 914 0564 411C      		adc r4,__zero_reg__
 915 0566 511C      		adc r5,__zero_reg__
 916               	.LVL47:
 917               	.L37:
 918 0568 0415      		cp r16,r4
 919 056a 1505      		cpc r17,r5
 920 056c 00F0      		brlo .L44
 921 056e B601      		movw r22,r12
 922 0570 00C0      		rjmp .L43
 923               	.L44:
 924               	/* epilogue start */
 925               	.LM96:
 926 0572 2896      		adiw r28,8
 927 0574 0FB6      		in __tmp_reg__,__SREG__
 928 0576 F894      		cli
 929 0578 DEBF      		out __SP_H__,r29
 930 057a 0FBE      		out __SREG__,__tmp_reg__
 931 057c CDBF      		out __SP_L__,r28
 932 057e CF91      		pop r28
 933 0580 DF91      		pop r29
 934 0582 1F91      		pop r17
 935 0584 0F91      		pop r16
 936 0586 FF90      		pop r15
 937 0588 EF90      		pop r14
 938 058a DF90      		pop r13
 939 058c CF90      		pop r12
 940 058e BF90      		pop r11
 941 0590 AF90      		pop r10
 942               	.LVL48:
 943 0592 9F90      		pop r9
 944               	.LVL49:
 945 0594 8F90      		pop r8
 946               	.LVL50:
 947 0596 7F90      		pop r7
 948               	.LVL51:
 949 0598 6F90      		pop r6
 950               	.LVL52:
 951 059a 5F90      		pop r5
 952 059c 4F90      		pop r4
 953               	.LVL53:
 954 059e 0895      		ret
 955               	.LFE10:
 956               		.size	fill_rectangle_bitmap, .-fill_rectangle_bitmap
 957               	.global	clear_screen
 958               		.type	clear_screen, @function
 959               	clear_screen:
 960               	.LFB11:
 961               	.LM97:
 962 05a0 0F93      		push r16
 963 05a2 1F93      		push r17
 964 05a4 DF93      		push r29
 965 05a6 CF93      		push r28
 966 05a8 CDB7      		in r28,__SP_L__
 967 05aa DEB7      		in r29,__SP_H__
 968 05ac 2897      		sbiw r28,8
 969 05ae 0FB6      		in __tmp_reg__,__SREG__
GAS LISTING C:\Users\SHERE_~1\AppData\Local\Temp/cc1ChbVl.s 			page 18


 970 05b0 F894      		cli
 971 05b2 DEBF      		out __SP_H__,r29
 972 05b4 0FBE      		out __SREG__,__tmp_reg__
 973 05b6 CDBF      		out __SP_L__,r28
 974               	/* prologue: function */
 975               	/* frame size = 8 */
 976               	.LM98:
 977 05b8 1092 0000 		sts (display+6)+1,__zero_reg__
 978 05bc 1092 0000 		sts display+6,__zero_reg__
 979               	.LM99:
 980 05c0 1092 0000 		sts (display+8)+1,__zero_reg__
 981 05c4 1092 0000 		sts display+8,__zero_reg__
 982               	.LM100:
 983 05c8 2091 0000 		lds r18,display
 984 05cc 3091 0000 		lds r19,(display)+1
 985 05d0 2150      		subi r18,lo8(-(-1))
 986 05d2 3040      		sbci r19,hi8(-(-1))
 987 05d4 8091 0000 		lds r24,display+2
 988 05d8 9091 0000 		lds r25,(display+2)+1
 989 05dc 0197      		sbiw r24,1
 990 05de 1A82      		std Y+2,__zero_reg__
 991 05e0 1982      		std Y+1,__zero_reg__
 992 05e2 422F      		mov r20,r18
 993 05e4 3C83      		std Y+4,r19
 994 05e6 2B83      		std Y+3,r18
 995 05e8 1E82      		std Y+6,__zero_reg__
 996 05ea 1D82      		std Y+5,__zero_reg__
 997 05ec 9887      		std Y+8,r25
 998 05ee 8F83      		std Y+7,r24
 999               	.LM101:
 1000 05f0 0091 0000 		lds r16,display+12
 1001 05f4 1091 0000 		lds r17,(display+12)+1
 1002 05f8 2981      		ldd r18,Y+1
 1003 05fa 3A81      		ldd r19,Y+2
 1004 05fc 5C81      		ldd r21,Y+4
 1005 05fe 6D81      		ldd r22,Y+5
 1006 0600 7E81      		ldd r23,Y+6
 1007 0602 9885      		ldd r25,Y+8
 1008 0604 0E94 0000 		call fill_rectangle
 1009               	/* epilogue start */
 1010               	.LM102:
 1011 0608 2896      		adiw r28,8
 1012 060a 0FB6      		in __tmp_reg__,__SREG__
 1013 060c F894      		cli
 1014 060e DEBF      		out __SP_H__,r29
 1015 0610 0FBE      		out __SREG__,__tmp_reg__
 1016 0612 CDBF      		out __SP_L__,r28
 1017 0614 CF91      		pop r28
 1018 0616 DF91      		pop r29
 1019 0618 1F91      		pop r17
 1020 061a 0F91      		pop r16
 1021 061c 0895      		ret
 1022               	.LFE11:
 1023               		.size	clear_screen, .-clear_screen
 1024               	.global	display_char
 1025               		.type	display_char, @function
 1026               	display_char:
GAS LISTING C:\Users\SHERE_~1\AppData\Local\Temp/cc1ChbVl.s 			page 19


 1027               	.LFB12:
 1028               	.LM103:
 1029               	.LVL54:
 1030 061e 6F92      		push r6
 1031 0620 7F92      		push r7
 1032 0622 8F92      		push r8
 1033 0624 9F92      		push r9
 1034 0626 AF92      		push r10
 1035 0628 BF92      		push r11
 1036 062a CF92      		push r12
 1037 062c DF92      		push r13
 1038 062e EF92      		push r14
 1039 0630 FF92      		push r15
 1040 0632 0F93      		push r16
 1041 0634 1F93      		push r17
 1042 0636 CF93      		push r28
 1043 0638 DF93      		push r29
 1044               	/* prologue: function */
 1045               	/* frame size = 0 */
 1046 063a 982F      		mov r25,r24
 1047               	.LM104:
 1048 063c 0091 0000 		lds r16,display+6
 1049 0640 1091 0000 		lds r17,(display+6)+1
 1050               	.LVL55:
 1051 0644 E4E0      		ldi r30,lo8(4)
 1052 0646 EE2E      		mov r14,r30
 1053 0648 F12C      		mov r15,__zero_reg__
 1054               	.LVL56:
 1055 064a E00E      		add r14,r16
 1056 064c F11E      		adc r15,r17
 1057 064e 6090 0000 		lds r6,display+8
 1058 0652 7090 0000 		lds r7,(display+8)+1
 1059               	.LVL57:
 1060               	.LM105:
 1061 0656 8052      		subi r24,lo8(-(-32))
 1062               	.LVL58:
 1063 0658 8F35      		cpi r24,lo8(95)
 1064 065a 00F0      		brlo .+2
 1065 065c 00C0      		rjmp .L60
 1066               	.LM106:
 1067 065e E301      		movw r28,r6
 1068               	.LVL59:
 1069 0660 2796      		adiw r28,7
 1070               	.LM107:
 1071 0662 85E0      		ldi r24,lo8(5)
 1072 0664 989F      		mul r25,r24
 1073 0666 9001      		movw r18,r0
 1074 0668 1124      		clr r1
 1075               	.LVL60:
 1076 066a 2050      		subi r18,lo8(-(font5x7-160))
 1077 066c 3040      		sbci r19,hi8(-(font5x7-160))
 1078               	.LM108:
 1079 066e 2C98      		cbi 37-32,4
 1080 0670 8BE2      		ldi r24,lo8(43)
 1081 0672 8BB9      		out 43-32,r24
 1082 0674 2B98      		cbi 37-32,3
 1083 0676 2B9A      		sbi 37-32,3
GAS LISTING C:\Users\SHERE_~1\AppData\Local\Temp/cc1ChbVl.s 			page 20


 1084 0678 2C9A      		sbi 37-32,4
 1085               	.LM109:
 1086 067a 7BB8      		out 43-32,r7
 1087               	.LVL61:
 1088 067c 2B98      		cbi 37-32,3
 1089 067e 2B9A      		sbi 37-32,3
 1090 0680 6BB8      		out 43-32,r6
 1091 0682 2B98      		cbi 37-32,3
 1092 0684 2B9A      		sbi 37-32,3
 1093               	.LM110:
 1094 0686 DBB9      		out 43-32,r29
 1095               	.LVL62:
 1096 0688 2B98      		cbi 37-32,3
 1097 068a 2B9A      		sbi 37-32,3
 1098 068c CBB9      		out 43-32,r28
 1099 068e 2B98      		cbi 37-32,3
 1100 0690 2B9A      		sbi 37-32,3
 1101               	.LM111:
 1102 0692 C090 0000 		lds r12,display+10
 1103 0696 D090 0000 		lds r13,display+11
 1104 069a A090 0000 		lds r10,display+12
 1105 069e B090 0000 		lds r11,display+13
 1106 06a2 A801      		movw r20,r16
 1107               	.LVL63:
 1108               	.LM112:
 1109 06a4 7AE2      		ldi r23,lo8(42)
 1110 06a6 872E      		mov r8,r23
 1111               	.LM113:
 1112 06a8 6CE2      		ldi r22,lo8(44)
 1113 06aa 962E      		mov r9,r22
 1114 06ac 00C0      		rjmp .L50
 1115               	.LVL64:
 1116               	.L57:
 1117               	.LM114:
 1118 06ae 2C98      		cbi 37-32,4
 1119 06b0 8BB8      		out 43-32,r8
 1120 06b2 2B98      		cbi 37-32,3
 1121 06b4 2B9A      		sbi 37-32,3
 1122 06b6 2C9A      		sbi 37-32,4
 1123               	.LM115:
 1124 06b8 5BB9      		out 43-32,r21
 1125 06ba 2B98      		cbi 37-32,3
 1126 06bc 2B9A      		sbi 37-32,3
 1127 06be 4BB9      		out 43-32,r20
 1128 06c0 2B98      		cbi 37-32,3
 1129 06c2 2B9A      		sbi 37-32,3
 1130               	.LM116:
 1131 06c4 5BB9      		out 43-32,r21
 1132 06c6 2B98      		cbi 37-32,3
 1133 06c8 2B9A      		sbi 37-32,3
 1134 06ca 4BB9      		out 43-32,r20
 1135 06cc 2B98      		cbi 37-32,3
 1136 06ce 2B9A      		sbi 37-32,3
 1137               	.LM117:
 1138 06d0 2C98      		cbi 37-32,4
 1139 06d2 9BB8      		out 43-32,r9
 1140 06d4 2B98      		cbi 37-32,3
GAS LISTING C:\Users\SHERE_~1\AppData\Local\Temp/cc1ChbVl.s 			page 21


 1141 06d6 2B9A      		sbi 37-32,3
 1142 06d8 2C9A      		sbi 37-32,4
 1143               	.LBB2:
 1144               	.LM118:
 1145 06da F901      		movw r30,r18
 1146               	/* #APP */
 1147               	 ;  207 "lcd.c" 1
 1148 06dc B491      		lpm r27, Z
 1149               		
 1150               	 ;  0 "" 2
 1151               	/* #NOAPP */
 1152 06de B301      		movw r22,r6
 1153 06e0 91E0      		ldi r25,lo8(1)
 1154               	.LVL65:
 1155 06e2 00C0      		rjmp .L51
 1156               	.L56:
 1157               	.LBE2:
 1158               	.LM119:
 1159 06e4 A92F      		mov r26,r25
 1160 06e6 AB23      		and r26,r27
 1161 06e8 01F4      		brne .L52
 1162 06ea 8B2D      		mov r24,r11
 1163 06ec 00C0      		rjmp .L53
 1164               	.L52:
 1165 06ee 8D2D      		mov r24,r13
 1166               	.L53:
 1167 06f0 8BB9      		out 43-32,r24
 1168 06f2 2B98      		cbi 37-32,3
 1169 06f4 2B9A      		sbi 37-32,3
 1170 06f6 AA23      		tst r26
 1171 06f8 01F4      		brne .L54
 1172 06fa 8A2D      		mov r24,r10
 1173 06fc 00C0      		rjmp .L55
 1174               	.L54:
 1175 06fe 8C2D      		mov r24,r12
 1176               	.L55:
 1177 0700 8BB9      		out 43-32,r24
 1178 0702 2B98      		cbi 37-32,3
 1179 0704 2B9A      		sbi 37-32,3
 1180               	.LM120:
 1181 0706 6F5F      		subi r22,lo8(-(1))
 1182 0708 7F4F      		sbci r23,hi8(-(1))
 1183 070a 990F      		lsl r25
 1184               	.L51:
 1185 070c C617      		cp r28,r22
 1186 070e D707      		cpc r29,r23
 1187 0710 00F4      		brsh .L56
 1188               	.LBB3:
 1189               	.LM121:
 1190 0712 2F5F      		subi r18,lo8(-(1))
 1191 0714 3F4F      		sbci r19,hi8(-(1))
 1192               	.LBE3:
 1193               	.LM122:
 1194 0716 4F5F      		subi r20,lo8(-(1))
 1195 0718 5F4F      		sbci r21,hi8(-(1))
 1196               	.LVL66:
 1197               	.L50:
GAS LISTING C:\Users\SHERE_~1\AppData\Local\Temp/cc1ChbVl.s 			page 22


 1198 071a E416      		cp r14,r20
 1199 071c F506      		cpc r15,r21
 1200 071e 00F4      		brsh .L57
 1201               	.LM123:
 1202 0720 2C98      		cbi 37-32,4
 1203 0722 8AE2      		ldi r24,lo8(42)
 1204 0724 8BB9      		out 43-32,r24
 1205 0726 2B98      		cbi 37-32,3
 1206 0728 2B9A      		sbi 37-32,3
 1207 072a 2C9A      		sbi 37-32,4
 1208               	.LM124:
 1209 072c 5BB9      		out 43-32,r21
 1210 072e 2B98      		cbi 37-32,3
 1211 0730 2B9A      		sbi 37-32,3
 1212 0732 4BB9      		out 43-32,r20
 1213 0734 2B98      		cbi 37-32,3
 1214 0736 2B9A      		sbi 37-32,3
 1215               	.LM125:
 1216 0738 5BB9      		out 43-32,r21
 1217 073a 2B98      		cbi 37-32,3
 1218 073c 2B9A      		sbi 37-32,3
 1219 073e 4BB9      		out 43-32,r20
 1220 0740 2B98      		cbi 37-32,3
 1221 0742 2B9A      		sbi 37-32,3
 1222               	.LM126:
 1223 0744 2C98      		cbi 37-32,4
 1224 0746 8CE2      		ldi r24,lo8(44)
 1225 0748 8BB9      		out 43-32,r24
 1226 074a 2B98      		cbi 37-32,3
 1227 074c 2B9A      		sbi 37-32,3
 1228 074e 2C9A      		sbi 37-32,4
 1229 0750 C301      		movw r24,r6
 1230               	.LVL67:
 1231 0752 00C0      		rjmp .L58
 1232               	.L59:
 1233               	.LM127:
 1234 0754 BBB8      		out 43-32,r11
 1235 0756 2B98      		cbi 37-32,3
 1236 0758 2B9A      		sbi 37-32,3
 1237 075a ABB8      		out 43-32,r10
 1238 075c 2B98      		cbi 37-32,3
 1239 075e 2B9A      		sbi 37-32,3
 1240               	.LM128:
 1241 0760 0196      		adiw r24,1
 1242               	.L58:
 1243 0762 C817      		cp r28,r24
 1244 0764 D907      		cpc r29,r25
 1245 0766 00F4      		brsh .L59
 1246               	.LM129:
 1247 0768 9801      		movw r18,r16
 1248               	.LVL68:
 1249 076a 2A5F      		subi r18,lo8(-(6))
 1250 076c 3F4F      		sbci r19,hi8(-(6))
 1251 076e 3093 0000 		sts (display+6)+1,r19
 1252 0772 2093 0000 		sts display+6,r18
 1253               	.LM130:
 1254 0776 8091 0000 		lds r24,display
GAS LISTING C:\Users\SHERE_~1\AppData\Local\Temp/cc1ChbVl.s 			page 23


 1255 077a 9091 0000 		lds r25,(display)+1
 1256               	.LVL69:
 1257 077e 2817      		cp r18,r24
 1258 0780 3907      		cpc r19,r25
 1259 0782 00F0      		brlo .L60
 1260 0784 1092 0000 		sts (display+6)+1,__zero_reg__
 1261 0788 1092 0000 		sts display+6,__zero_reg__
 1262 078c 88E0      		ldi r24,lo8(8)
 1263 078e 90E0      		ldi r25,hi8(8)
 1264 0790 680E      		add r6,r24
 1265 0792 791E      		adc r7,r25
 1266 0794 7092 0000 		sts (display+8)+1,r7
 1267 0798 6092 0000 		sts display+8,r6
 1268               	.L60:
 1269               	/* epilogue start */
 1270               	.LM131:
 1271 079c DF91      		pop r29
 1272               	.LVL70:
 1273 079e CF91      		pop r28
 1274               	.LVL71:
 1275 07a0 1F91      		pop r17
 1276 07a2 0F91      		pop r16
 1277               	.LVL72:
 1278 07a4 FF90      		pop r15
 1279 07a6 EF90      		pop r14
 1280               	.LVL73:
 1281 07a8 DF90      		pop r13
 1282 07aa CF90      		pop r12
 1283 07ac BF90      		pop r11
 1284 07ae AF90      		pop r10
 1285 07b0 9F90      		pop r9
 1286 07b2 8F90      		pop r8
 1287 07b4 7F90      		pop r7
 1288               	.LVL74:
 1289 07b6 6F90      		pop r6
 1290               	.LVL75:
 1291 07b8 0895      		ret
 1292               	.LFE12:
 1293               		.size	display_char, .-display_char
 1294               	.global	display_string
 1295               		.type	display_string, @function
 1296               	display_string:
 1297               	.LFB13:
 1298               	.LM132:
 1299               	.LVL76:
 1300 07ba 1F93      		push r17
 1301 07bc CF93      		push r28
 1302 07be DF93      		push r29
 1303               	/* prologue: function */
 1304               	/* frame size = 0 */
 1305 07c0 EC01      		movw r28,r24
 1306               	.LM133:
 1307 07c2 10E0      		ldi r17,lo8(0)
 1308               	.LVL77:
 1309 07c4 00C0      		rjmp .L62
 1310               	.LVL78:
 1311               	.L63:
GAS LISTING C:\Users\SHERE_~1\AppData\Local\Temp/cc1ChbVl.s 			page 24


 1312               	.LM134:
 1313 07c6 0E94 0000 		call display_char
 1314               	.LM135:
 1315 07ca 1F5F      		subi r17,lo8(-(1))
 1316               	.LVL79:
 1317               	.L62:
 1318 07cc FE01      		movw r30,r28
 1319 07ce E10F      		add r30,r17
 1320 07d0 F11D      		adc r31,__zero_reg__
 1321 07d2 8081      		ld r24,Z
 1322 07d4 8823      		tst r24
 1323 07d6 01F4      		brne .L63
 1324               	/* epilogue start */
 1325               	.LM136:
 1326 07d8 DF91      		pop r29
 1327 07da CF91      		pop r28
 1328               	.LVL80:
 1329 07dc 1F91      		pop r17
 1330               	.LVL81:
 1331 07de 0895      		ret
 1332               	.LFE13:
 1333               		.size	display_string, .-display_string
 1334               	.global	init_lcd
 1335               		.type	init_lcd, @function
 1336               	init_lcd:
 1337               	.LFB2:
 1338               	.LM137:
 1339               	/* prologue: function */
 1340               	/* frame size = 0 */
 1341               	.LM138:
 1342 07e0 85B7      		in r24,85-32
 1343 07e2 8068      		ori r24,lo8(-128)
 1344 07e4 85BF      		out 85-32,r24
 1345               	.LM139:
 1346 07e6 85B7      		in r24,85-32
 1347 07e8 8068      		ori r24,lo8(-128)
 1348 07ea 85BF      		out 85-32,r24
 1349               	.LM140:
 1350 07ec 8FE7      		ldi r24,lo8(127)
 1351 07ee 84B9      		out 36-32,r24
 1352               	.LM141:
 1353 07f0 8FEF      		ldi r24,lo8(-1)
 1354 07f2 8AB9      		out 42-32,r24
 1355               	.LM142:
 1356 07f4 0E94 0000 		call init_display_controller
 1357               	/* epilogue start */
 1358               	.LM143:
 1359 07f8 0895      		ret
 1360               	.LFE2:
 1361               		.size	init_lcd, .-init_lcd
 1362               	.global	display
 1363               		.data
 1364               		.type	display, @object
 1365               		.size	display, 14
 1366               	display:
 1367 0000 F000      		.word	240
 1368 0002 4001      		.word	320
GAS LISTING C:\Users\SHERE_~1\AppData\Local\Temp/cc1ChbVl.s 			page 25


 1369 0004 0000      		.word	0
 1370 0006 0000      		.word	0
 1371 0008 0000      		.word	0
 1372 000a FFFF      		.word	-1
 1373 000c 0000      		.word	0
 1374               		.section	.debug_frame,"",@progbits
 1375               	.Lframe0:
 1376 0000 0C00 0000 		.long	.LECIE0-.LSCIE0
 1377               	.LSCIE0:
 1378 0004 FFFF FFFF 		.long	0xffffffff
 1379 0008 01        		.byte	0x1
 1380 0009 00        		.string	""
 1381 000a 01        		.uleb128 0x1
 1382 000b 7F        		.sleb128 -1
 1383 000c 24        		.byte	0x24
 1384 000d 0C        		.byte	0xc
 1385 000e 20        		.uleb128 0x20
 1386 000f 00        		.uleb128 0x0
 1387               		.p2align	2
 1388               	.LECIE0:
 1389               	.LSFDE0:
 1390 0010 0C00 0000 		.long	.LEFDE0-.LASFDE0
 1391               	.LASFDE0:
 1392 0014 0000 0000 		.long	.Lframe0
 1393 0018 0000 0000 		.long	.LFB3
 1394 001c 0801 0000 		.long	.LFE3-.LFB3
 1395               		.p2align	2
 1396               	.LEFDE0:
 1397               	.LSFDE2:
 1398 0020 0C00 0000 		.long	.LEFDE2-.LASFDE2
 1399               	.LASFDE2:
 1400 0024 0000 0000 		.long	.Lframe0
 1401 0028 0000 0000 		.long	.LFB4
 1402 002c 0A00 0000 		.long	.LFE4-.LFB4
 1403               		.p2align	2
 1404               	.LEFDE2:
 1405               	.LSFDE4:
 1406 0030 0C00 0000 		.long	.LEFDE4-.LASFDE4
 1407               	.LASFDE4:
 1408 0034 0000 0000 		.long	.Lframe0
 1409 0038 0000 0000 		.long	.LFB5
 1410 003c 0A00 0000 		.long	.LFE5-.LFB5
 1411               		.p2align	2
 1412               	.LEFDE4:
 1413               	.LSFDE6:
 1414 0040 0C00 0000 		.long	.LEFDE6-.LASFDE6
 1415               	.LASFDE6:
 1416 0044 0000 0000 		.long	.Lframe0
 1417 0048 0000 0000 		.long	.LFB6
 1418 004c 0A00 0000 		.long	.LFE6-.LFB6
 1419               		.p2align	2
 1420               	.LEFDE6:
 1421               	.LSFDE8:
 1422 0050 0C00 0000 		.long	.LEFDE8-.LASFDE8
 1423               	.LASFDE8:
 1424 0054 0000 0000 		.long	.Lframe0
 1425 0058 0000 0000 		.long	.LFB7
GAS LISTING C:\Users\SHERE_~1\AppData\Local\Temp/cc1ChbVl.s 			page 26


 1426 005c DE00 0000 		.long	.LFE7-.LFB7
 1427               		.p2align	2
 1428               	.LEFDE8:
 1429               	.LSFDE10:
 1430 0060 0C00 0000 		.long	.LEFDE10-.LASFDE10
 1431               	.LASFDE10:
 1432 0064 0000 0000 		.long	.Lframe0
 1433 0068 0000 0000 		.long	.LFB8
 1434 006c E800 0000 		.long	.LFE8-.LFB8
 1435               		.p2align	2
 1436               	.LEFDE10:
 1437               	.LSFDE12:
 1438 0070 0C00 0000 		.long	.LEFDE12-.LASFDE12
 1439               	.LASFDE12:
 1440 0074 0000 0000 		.long	.Lframe0
 1441 0078 0000 0000 		.long	.LFB9
 1442 007c 6601 0000 		.long	.LFE9-.LFB9
 1443               		.p2align	2
 1444               	.LEFDE12:
 1445               	.LSFDE14:
 1446 0080 0C00 0000 		.long	.LEFDE14-.LASFDE14
 1447               	.LASFDE14:
 1448 0084 0000 0000 		.long	.Lframe0
 1449 0088 0000 0000 		.long	.LFB10
 1450 008c 4E01 0000 		.long	.LFE10-.LFB10
 1451               		.p2align	2
 1452               	.LEFDE14:
 1453               	.LSFDE16:
 1454 0090 0C00 0000 		.long	.LEFDE16-.LASFDE16
 1455               	.LASFDE16:
 1456 0094 0000 0000 		.long	.Lframe0
 1457 0098 0000 0000 		.long	.LFB11
 1458 009c 7E00 0000 		.long	.LFE11-.LFB11
 1459               		.p2align	2
 1460               	.LEFDE16:
 1461               	.LSFDE18:
 1462 00a0 0C00 0000 		.long	.LEFDE18-.LASFDE18
 1463               	.LASFDE18:
 1464 00a4 0000 0000 		.long	.Lframe0
 1465 00a8 0000 0000 		.long	.LFB12
 1466 00ac 9C01 0000 		.long	.LFE12-.LFB12
 1467               		.p2align	2
 1468               	.LEFDE18:
 1469               	.LSFDE20:
 1470 00b0 0C00 0000 		.long	.LEFDE20-.LASFDE20
 1471               	.LASFDE20:
 1472 00b4 0000 0000 		.long	.Lframe0
 1473 00b8 0000 0000 		.long	.LFB13
 1474 00bc 2600 0000 		.long	.LFE13-.LFB13
 1475               		.p2align	2
 1476               	.LEFDE20:
 1477               	.LSFDE22:
 1478 00c0 0C00 0000 		.long	.LEFDE22-.LASFDE22
 1479               	.LASFDE22:
 1480 00c4 0000 0000 		.long	.Lframe0
 1481 00c8 0000 0000 		.long	.LFB2
 1482 00cc 1A00 0000 		.long	.LFE2-.LFB2
GAS LISTING C:\Users\SHERE_~1\AppData\Local\Temp/cc1ChbVl.s 			page 27


 1483               		.p2align	2
 1484               	.LEFDE22:
 1485               		.text
 1486               	.Letext0:
 1487               		.section	.debug_loc,"",@progbits
 1488               	.Ldebug_loc0:
 1489               	.LLST1:
 1490 0000 0000 0000 		.long	.LVL0-.Ltext0
 1491 0004 0E00 0000 		.long	.LVL1-.Ltext0
 1492 0008 0600      		.word	0x6
 1493 000a 68        		.byte	0x68
 1494 000b 93        		.byte	0x93
 1495 000c 01        		.uleb128 0x1
 1496 000d 69        		.byte	0x69
 1497 000e 93        		.byte	0x93
 1498 000f 01        		.uleb128 0x1
 1499 0010 0E00 0000 		.long	.LVL1-.Ltext0
 1500 0014 0801 0000 		.long	.LFE3-.Ltext0
 1501 0018 0600      		.word	0x6
 1502 001a 62        		.byte	0x62
 1503 001b 93        		.byte	0x93
 1504 001c 01        		.uleb128 0x1
 1505 001d 63        		.byte	0x63
 1506 001e 93        		.byte	0x93
 1507 001f 01        		.uleb128 0x1
 1508 0020 0000 0000 		.long	0x0
 1509 0024 0000 0000 		.long	0x0
 1510               	.LLST6:
 1511 0028 2601 0000 		.long	.LVL2-.Ltext0
 1512 002c 2C01 0000 		.long	.LVL3-.Ltext0
 1513 0030 0600      		.word	0x6
 1514 0032 60        		.byte	0x60
 1515 0033 93        		.byte	0x93
 1516 0034 01        		.uleb128 0x1
 1517 0035 61        		.byte	0x61
 1518 0036 93        		.byte	0x93
 1519 0037 01        		.uleb128 0x1
 1520 0038 C601 0000 		.long	.LVL8-.Ltext0
 1521 003c 0002 0000 		.long	.LVL12-.Ltext0
 1522 0040 0600      		.word	0x6
 1523 0042 5E        		.byte	0x5e
 1524 0043 93        		.byte	0x93
 1525 0044 01        		.uleb128 0x1
 1526 0045 5F        		.byte	0x5f
 1527 0046 93        		.byte	0x93
 1528 0047 01        		.uleb128 0x1
 1529 0048 0000 0000 		.long	0x0
 1530 004c 0000 0000 		.long	0x0
 1531               	.LLST7:
 1532 0050 C001 0000 		.long	.LVL5-.Ltext0
 1533 0054 C201 0000 		.long	.LVL6-.Ltext0
 1534 0058 0600      		.word	0x6
 1535 005a 62        		.byte	0x62
 1536 005b 93        		.byte	0x93
 1537 005c 01        		.uleb128 0x1
 1538 005d 63        		.byte	0x63
 1539 005e 93        		.byte	0x93
GAS LISTING C:\Users\SHERE_~1\AppData\Local\Temp/cc1ChbVl.s 			page 28


 1540 005f 01        		.uleb128 0x1
 1541 0060 C401 0000 		.long	.LVL7-.Ltext0
 1542 0064 C601 0000 		.long	.LVL8-.Ltext0
 1543 0068 0600      		.word	0x6
 1544 006a 68        		.byte	0x68
 1545 006b 93        		.byte	0x93
 1546 006c 01        		.uleb128 0x1
 1547 006d 69        		.byte	0x69
 1548 006e 93        		.byte	0x93
 1549 006f 01        		.uleb128 0x1
 1550 0070 C601 0000 		.long	.LVL8-.Ltext0
 1551 0074 0402 0000 		.long	.LFE7-.Ltext0
 1552 0078 0600      		.word	0x6
 1553 007a 64        		.byte	0x64
 1554 007b 93        		.byte	0x93
 1555 007c 01        		.uleb128 0x1
 1556 007d 65        		.byte	0x65
 1557 007e 93        		.byte	0x93
 1558 007f 01        		.uleb128 0x1
 1559 0080 0000 0000 		.long	0x0
 1560 0084 0000 0000 		.long	0x0
 1561               	.LLST8:
 1562 0088 C601 0000 		.long	.LVL8-.Ltext0
 1563 008c E801 0000 		.long	.LVL10-.Ltext0
 1564 0090 0600      		.word	0x6
 1565 0092 62        		.byte	0x62
 1566 0093 93        		.byte	0x93
 1567 0094 01        		.uleb128 0x1
 1568 0095 63        		.byte	0x63
 1569 0096 93        		.byte	0x93
 1570 0097 01        		.uleb128 0x1
 1571 0098 EA01 0000 		.long	.LVL11-.Ltext0
 1572 009c 0402 0000 		.long	.LFE7-.Ltext0
 1573 00a0 0600      		.word	0x6
 1574 00a2 62        		.byte	0x62
 1575 00a3 93        		.byte	0x93
 1576 00a4 01        		.uleb128 0x1
 1577 00a5 63        		.byte	0x63
 1578 00a6 93        		.byte	0x93
 1579 00a7 01        		.uleb128 0x1
 1580 00a8 0000 0000 		.long	0x0
 1581 00ac 0000 0000 		.long	0x0
 1582               	.LLST10:
 1583 00b0 0402 0000 		.long	.LVL14-.Ltext0
 1584 00b4 0A02 0000 		.long	.LVL15-.Ltext0
 1585 00b8 0600      		.word	0x6
 1586 00ba 60        		.byte	0x60
 1587 00bb 93        		.byte	0x93
 1588 00bc 01        		.uleb128 0x1
 1589 00bd 61        		.byte	0x61
 1590 00be 93        		.byte	0x93
 1591 00bf 01        		.uleb128 0x1
 1592 00c0 3A02 0000 		.long	.LVL16-.Ltext0
 1593 00c4 3E02 0000 		.long	.LVL17-.Ltext0
 1594 00c8 0600      		.word	0x6
 1595 00ca 60        		.byte	0x60
 1596 00cb 93        		.byte	0x93
GAS LISTING C:\Users\SHERE_~1\AppData\Local\Temp/cc1ChbVl.s 			page 29


 1597 00cc 01        		.uleb128 0x1
 1598 00cd 61        		.byte	0x61
 1599 00ce 93        		.byte	0x93
 1600 00cf 01        		.uleb128 0x1
 1601 00d0 3E02 0000 		.long	.LVL17-.Ltext0
 1602 00d4 EC02 0000 		.long	.LFE8-.Ltext0
 1603 00d8 0600      		.word	0x6
 1604 00da 6A        		.byte	0x6a
 1605 00db 93        		.byte	0x93
 1606 00dc 01        		.uleb128 0x1
 1607 00dd 6B        		.byte	0x6b
 1608 00de 93        		.byte	0x93
 1609 00df 01        		.uleb128 0x1
 1610 00e0 0000 0000 		.long	0x0
 1611 00e4 0000 0000 		.long	0x0
 1612               	.LLST11:
 1613 00e8 9E02 0000 		.long	.LVL19-.Ltext0
 1614 00ec A002 0000 		.long	.LVL20-.Ltext0
 1615 00f0 0600      		.word	0x6
 1616 00f2 62        		.byte	0x62
 1617 00f3 93        		.byte	0x93
 1618 00f4 01        		.uleb128 0x1
 1619 00f5 63        		.byte	0x63
 1620 00f6 93        		.byte	0x93
 1621 00f7 01        		.uleb128 0x1
 1622 00f8 A202 0000 		.long	.LVL21-.Ltext0
 1623 00fc A402 0000 		.long	.LVL22-.Ltext0
 1624 0100 0600      		.word	0x6
 1625 0102 68        		.byte	0x68
 1626 0103 93        		.byte	0x93
 1627 0104 01        		.uleb128 0x1
 1628 0105 69        		.byte	0x69
 1629 0106 93        		.byte	0x93
 1630 0107 01        		.uleb128 0x1
 1631 0108 A402 0000 		.long	.LVL22-.Ltext0
 1632 010c EC02 0000 		.long	.LFE8-.Ltext0
 1633 0110 0600      		.word	0x6
 1634 0112 64        		.byte	0x64
 1635 0113 93        		.byte	0x93
 1636 0114 01        		.uleb128 0x1
 1637 0115 65        		.byte	0x65
 1638 0116 93        		.byte	0x93
 1639 0117 01        		.uleb128 0x1
 1640 0118 0000 0000 		.long	0x0
 1641 011c 0000 0000 		.long	0x0
 1642               	.LLST12:
 1643 0120 A402 0000 		.long	.LVL22-.Ltext0
 1644 0124 D002 0000 		.long	.LVL25-.Ltext0
 1645 0128 0600      		.word	0x6
 1646 012a 62        		.byte	0x62
 1647 012b 93        		.byte	0x93
 1648 012c 01        		.uleb128 0x1
 1649 012d 63        		.byte	0x63
 1650 012e 93        		.byte	0x93
 1651 012f 01        		.uleb128 0x1
 1652 0130 D202 0000 		.long	.LVL26-.Ltext0
 1653 0134 EC02 0000 		.long	.LFE8-.Ltext0
GAS LISTING C:\Users\SHERE_~1\AppData\Local\Temp/cc1ChbVl.s 			page 30


 1654 0138 0600      		.word	0x6
 1655 013a 62        		.byte	0x62
 1656 013b 93        		.byte	0x93
 1657 013c 01        		.uleb128 0x1
 1658 013d 63        		.byte	0x63
 1659 013e 93        		.byte	0x93
 1660 013f 01        		.uleb128 0x1
 1661 0140 0000 0000 		.long	0x0
 1662 0144 0000 0000 		.long	0x0
 1663               	.LLST14:
 1664 0148 EC02 0000 		.long	.LVL27-.Ltext0
 1665 014c FE02 0000 		.long	.LVL29-.Ltext0
 1666 0150 0600      		.word	0x6
 1667 0152 60        		.byte	0x60
 1668 0153 93        		.byte	0x93
 1669 0154 01        		.uleb128 0x1
 1670 0155 61        		.byte	0x61
 1671 0156 93        		.byte	0x93
 1672 0157 01        		.uleb128 0x1
 1673 0158 0000 0000 		.long	0x0
 1674 015c 0000 0000 		.long	0x0
 1675               	.LLST15:
 1676 0160 EC02 0000 		.long	.LVL27-.Ltext0
 1677 0164 FA02 0000 		.long	.LVL28-.Ltext0
 1678 0168 0600      		.word	0x6
 1679 016a 5E        		.byte	0x5e
 1680 016b 93        		.byte	0x93
 1681 016c 01        		.uleb128 0x1
 1682 016d 5F        		.byte	0x5f
 1683 016e 93        		.byte	0x93
 1684 016f 01        		.uleb128 0x1
 1685 0170 0000 0000 		.long	0x0
 1686 0174 0000 0000 		.long	0x0
 1687               	.LLST16:
 1688 0178 D403 0000 		.long	.LVL30-.Ltext0
 1689 017c 4404 0000 		.long	.LVL33-.Ltext0
 1690 0180 0600      		.word	0x6
 1691 0182 5E        		.byte	0x5e
 1692 0183 93        		.byte	0x93
 1693 0184 01        		.uleb128 0x1
 1694 0185 5F        		.byte	0x5f
 1695 0186 93        		.byte	0x93
 1696 0187 01        		.uleb128 0x1
 1697 0188 0000 0000 		.long	0x0
 1698 018c 0000 0000 		.long	0x0
 1699               	.LLST17:
 1700 0190 DA03 0000 		.long	.LVL31-.Ltext0
 1701 0194 4004 0000 		.long	.LVL32-.Ltext0
 1702 0198 0600      		.word	0x6
 1703 019a 60        		.byte	0x60
 1704 019b 93        		.byte	0x93
 1705 019c 01        		.uleb128 0x1
 1706 019d 61        		.byte	0x61
 1707 019e 93        		.byte	0x93
 1708 019f 01        		.uleb128 0x1
 1709 01a0 0000 0000 		.long	0x0
 1710 01a4 0000 0000 		.long	0x0
GAS LISTING C:\Users\SHERE_~1\AppData\Local\Temp/cc1ChbVl.s 			page 31


 1711               	.LLST19:
 1712 01a8 5204 0000 		.long	.LVL34-.Ltext0
 1713 01ac 6C04 0000 		.long	.LVL37-.Ltext0
 1714 01b0 0600      		.word	0x6
 1715 01b2 60        		.byte	0x60
 1716 01b3 93        		.byte	0x93
 1717 01b4 01        		.uleb128 0x1
 1718 01b5 61        		.byte	0x61
 1719 01b6 93        		.byte	0x93
 1720 01b7 01        		.uleb128 0x1
 1721 01b8 9804 0000 		.long	.LVL38-.Ltext0
 1722 01bc A004 0000 		.long	.LVL39-.Ltext0
 1723 01c0 0600      		.word	0x6
 1724 01c2 60        		.byte	0x60
 1725 01c3 93        		.byte	0x93
 1726 01c4 01        		.uleb128 0x1
 1727 01c5 61        		.byte	0x61
 1728 01c6 93        		.byte	0x93
 1729 01c7 01        		.uleb128 0x1
 1730 01c8 A004 0000 		.long	.LVL39-.Ltext0
 1731 01cc 9205 0000 		.long	.LVL48-.Ltext0
 1732 01d0 0600      		.word	0x6
 1733 01d2 5A        		.byte	0x5a
 1734 01d3 93        		.byte	0x93
 1735 01d4 01        		.uleb128 0x1
 1736 01d5 5B        		.byte	0x5b
 1737 01d6 93        		.byte	0x93
 1738 01d7 01        		.uleb128 0x1
 1739 01d8 0000 0000 		.long	0x0
 1740 01dc 0000 0000 		.long	0x0
 1741               	.LLST20:
 1742 01e0 5204 0000 		.long	.LVL34-.Ltext0
 1743 01e4 6804 0000 		.long	.LVL36-.Ltext0
 1744 01e8 0600      		.word	0x6
 1745 01ea 5E        		.byte	0x5e
 1746 01eb 93        		.byte	0x93
 1747 01ec 01        		.uleb128 0x1
 1748 01ed 5F        		.byte	0x5f
 1749 01ee 93        		.byte	0x93
 1750 01ef 01        		.uleb128 0x1
 1751 01f0 1005 0000 		.long	.LVL45-.Ltext0
 1752 01f4 9805 0000 		.long	.LVL51-.Ltext0
 1753 01f8 0600      		.word	0x6
 1754 01fa 56        		.byte	0x56
 1755 01fb 93        		.byte	0x93
 1756 01fc 01        		.uleb128 0x1
 1757 01fd 57        		.byte	0x57
 1758 01fe 93        		.byte	0x93
 1759 01ff 01        		.uleb128 0x1
 1760 0200 0000 0000 		.long	0x0
 1761 0204 0000 0000 		.long	0x0
 1762               	.LLST21:
 1763 0208 5204 0000 		.long	.LVL34-.Ltext0
 1764 020c 6404 0000 		.long	.LVL35-.Ltext0
 1765 0210 0600      		.word	0x6
 1766 0212 5C        		.byte	0x5c
 1767 0213 93        		.byte	0x93
GAS LISTING C:\Users\SHERE_~1\AppData\Local\Temp/cc1ChbVl.s 			page 32


 1768 0214 01        		.uleb128 0x1
 1769 0215 5D        		.byte	0x5d
 1770 0216 93        		.byte	0x93
 1771 0217 01        		.uleb128 0x1
 1772 0218 1005 0000 		.long	.LVL45-.Ltext0
 1773 021c 9405 0000 		.long	.LVL49-.Ltext0
 1774 0220 0600      		.word	0x6
 1775 0222 58        		.byte	0x58
 1776 0223 93        		.byte	0x93
 1777 0224 01        		.uleb128 0x1
 1778 0225 59        		.byte	0x59
 1779 0226 93        		.byte	0x93
 1780 0227 01        		.uleb128 0x1
 1781 0228 0000 0000 		.long	0x0
 1782 022c 0000 0000 		.long	0x0
 1783               	.LLST22:
 1784 0230 0005 0000 		.long	.LVL41-.Ltext0
 1785 0234 0205 0000 		.long	.LVL42-.Ltext0
 1786 0238 0600      		.word	0x6
 1787 023a 62        		.byte	0x62
 1788 023b 93        		.byte	0x93
 1789 023c 01        		.uleb128 0x1
 1790 023d 63        		.byte	0x63
 1791 023e 93        		.byte	0x93
 1792 023f 01        		.uleb128 0x1
 1793 0240 0405 0000 		.long	.LVL43-.Ltext0
 1794 0244 1005 0000 		.long	.LVL45-.Ltext0
 1795 0248 0600      		.word	0x6
 1796 024a 68        		.byte	0x68
 1797 024b 93        		.byte	0x93
 1798 024c 01        		.uleb128 0x1
 1799 024d 69        		.byte	0x69
 1800 024e 93        		.byte	0x93
 1801 024f 01        		.uleb128 0x1
 1802 0250 1005 0000 		.long	.LVL45-.Ltext0
 1803 0254 9E05 0000 		.long	.LVL53-.Ltext0
 1804 0258 0600      		.word	0x6
 1805 025a 54        		.byte	0x54
 1806 025b 93        		.byte	0x93
 1807 025c 01        		.uleb128 0x1
 1808 025d 55        		.byte	0x55
 1809 025e 93        		.byte	0x93
 1810 025f 01        		.uleb128 0x1
 1811 0260 9E05 0000 		.long	.LVL53-.Ltext0
 1812 0264 A005 0000 		.long	.LFE10-.Ltext0
 1813 0268 0600      		.word	0x6
 1814 026a 68        		.byte	0x68
 1815 026b 93        		.byte	0x93
 1816 026c 01        		.uleb128 0x1
 1817 026d 69        		.byte	0x69
 1818 026e 93        		.byte	0x93
 1819 026f 01        		.uleb128 0x1
 1820 0270 0000 0000 		.long	0x0
 1821 0274 0000 0000 		.long	0x0
 1822               	.LLST25:
 1823 0278 1E06 0000 		.long	.LVL54-.Ltext0
 1824 027c 5806 0000 		.long	.LVL58-.Ltext0
GAS LISTING C:\Users\SHERE_~1\AppData\Local\Temp/cc1ChbVl.s 			page 33


 1825 0280 0100      		.word	0x1
 1826 0282 68        		.byte	0x68
 1827 0283 5806 0000 		.long	.LVL58-.Ltext0
 1828 0287 E206 0000 		.long	.LVL65-.Ltext0
 1829 028b 0100      		.word	0x1
 1830 028d 69        		.byte	0x69
 1831 028e 1A07 0000 		.long	.LVL66-.Ltext0
 1832 0292 BA07 0000 		.long	.LFE12-.Ltext0
 1833 0296 0100      		.word	0x1
 1834 0298 69        		.byte	0x69
 1835 0299 0000 0000 		.long	0x0
 1836 029d 0000 0000 		.long	0x0
 1837               	.LLST26:
 1838 02a1 AE06 0000 		.long	.LVL64-.Ltext0
 1839 02a5 5207 0000 		.long	.LVL67-.Ltext0
 1840 02a9 0600      		.word	0x6
 1841 02ab 66        		.byte	0x66
 1842 02ac 93        		.byte	0x93
 1843 02ad 01        		.uleb128 0x1
 1844 02ae 67        		.byte	0x67
 1845 02af 93        		.byte	0x93
 1846 02b0 01        		.uleb128 0x1
 1847 02b1 5207 0000 		.long	.LVL67-.Ltext0
 1848 02b5 7E07 0000 		.long	.LVL69-.Ltext0
 1849 02b9 0600      		.word	0x6
 1850 02bb 68        		.byte	0x68
 1851 02bc 93        		.byte	0x93
 1852 02bd 01        		.uleb128 0x1
 1853 02be 69        		.byte	0x69
 1854 02bf 93        		.byte	0x93
 1855 02c0 01        		.uleb128 0x1
 1856 02c1 0000 0000 		.long	0x0
 1857 02c5 0000 0000 		.long	0x0
 1858               	.LLST27:
 1859 02c9 6A06 0000 		.long	.LVL60-.Ltext0
 1860 02cd 6A07 0000 		.long	.LVL68-.Ltext0
 1861 02d1 0600      		.word	0x6
 1862 02d3 62        		.byte	0x62
 1863 02d4 93        		.byte	0x93
 1864 02d5 01        		.uleb128 0x1
 1865 02d6 63        		.byte	0x63
 1866 02d7 93        		.byte	0x93
 1867 02d8 01        		.uleb128 0x1
 1868 02d9 0000 0000 		.long	0x0
 1869 02dd 0000 0000 		.long	0x0
 1870               	.LLST28:
 1871 02e1 4406 0000 		.long	.LVL55-.Ltext0
 1872 02e5 A407 0000 		.long	.LVL72-.Ltext0
 1873 02e9 0600      		.word	0x6
 1874 02eb 60        		.byte	0x60
 1875 02ec 93        		.byte	0x93
 1876 02ed 01        		.uleb128 0x1
 1877 02ee 61        		.byte	0x61
 1878 02ef 93        		.byte	0x93
 1879 02f0 01        		.uleb128 0x1
 1880 02f1 0000 0000 		.long	0x0
 1881 02f5 0000 0000 		.long	0x0
GAS LISTING C:\Users\SHERE_~1\AppData\Local\Temp/cc1ChbVl.s 			page 34


 1882               	.LLST29:
 1883 02f9 4A06 0000 		.long	.LVL56-.Ltext0
 1884 02fd A807 0000 		.long	.LVL73-.Ltext0
 1885 0301 0600      		.word	0x6
 1886 0303 5E        		.byte	0x5e
 1887 0304 93        		.byte	0x93
 1888 0305 01        		.uleb128 0x1
 1889 0306 5F        		.byte	0x5f
 1890 0307 93        		.byte	0x93
 1891 0308 01        		.uleb128 0x1
 1892 0309 0000 0000 		.long	0x0
 1893 030d 0000 0000 		.long	0x0
 1894               	.LLST30:
 1895 0311 5606 0000 		.long	.LVL57-.Ltext0
 1896 0315 B807 0000 		.long	.LVL75-.Ltext0
 1897 0319 0600      		.word	0x6
 1898 031b 56        		.byte	0x56
 1899 031c 93        		.byte	0x93
 1900 031d 01        		.uleb128 0x1
 1901 031e 57        		.byte	0x57
 1902 031f 93        		.byte	0x93
 1903 0320 01        		.uleb128 0x1
 1904 0321 0000 0000 		.long	0x0
 1905 0325 0000 0000 		.long	0x0
 1906               	.LLST31:
 1907 0329 6006 0000 		.long	.LVL59-.Ltext0
 1908 032d A007 0000 		.long	.LVL71-.Ltext0
 1909 0331 0600      		.word	0x6
 1910 0333 6C        		.byte	0x6c
 1911 0334 93        		.byte	0x93
 1912 0335 01        		.uleb128 0x1
 1913 0336 6D        		.byte	0x6d
 1914 0337 93        		.byte	0x93
 1915 0338 01        		.uleb128 0x1
 1916 0339 0000 0000 		.long	0x0
 1917 033d 0000 0000 		.long	0x0
 1918               	.LLST33:
 1919 0341 BA07 0000 		.long	.LVL76-.Ltext0
 1920 0345 C607 0000 		.long	.LVL78-.Ltext0
 1921 0349 0600      		.word	0x6
 1922 034b 68        		.byte	0x68
 1923 034c 93        		.byte	0x93
 1924 034d 01        		.uleb128 0x1
 1925 034e 69        		.byte	0x69
 1926 034f 93        		.byte	0x93
 1927 0350 01        		.uleb128 0x1
 1928 0351 C607 0000 		.long	.LVL78-.Ltext0
 1929 0355 DC07 0000 		.long	.LVL80-.Ltext0
 1930 0359 0600      		.word	0x6
 1931 035b 6C        		.byte	0x6c
 1932 035c 93        		.byte	0x93
 1933 035d 01        		.uleb128 0x1
 1934 035e 6D        		.byte	0x6d
 1935 035f 93        		.byte	0x93
 1936 0360 01        		.uleb128 0x1
 1937 0361 0000 0000 		.long	0x0
 1938 0365 0000 0000 		.long	0x0
GAS LISTING C:\Users\SHERE_~1\AppData\Local\Temp/cc1ChbVl.s 			page 35


 1939               	.LLST34:
 1940 0369 C407 0000 		.long	.LVL77-.Ltext0
 1941 036d DE07 0000 		.long	.LVL81-.Ltext0
 1942 0371 0100      		.word	0x1
 1943 0373 61        		.byte	0x61
 1944 0374 0000 0000 		.long	0x0
 1945 0378 0000 0000 		.long	0x0
 1946               		.section	.debug_info
 1947 0000 EB04 0000 		.long	0x4eb
 1948 0004 0200      		.word	0x2
 1949 0006 0000 0000 		.long	.Ldebug_abbrev0
 1950 000a 04        		.byte	0x4
 1951 000b 01        		.uleb128 0x1
 1952 000c 0000 0000 		.long	.LASF43
 1953 0010 01        		.byte	0x1
 1954 0011 0000 0000 		.long	.LASF44
 1955 0015 0000 0000 		.long	.LASF45
 1956 0019 0000 0000 		.long	.Ltext0
 1957 001d 0000 0000 		.long	.Letext0
 1958 0021 0000 0000 		.long	.Ldebug_line0
 1959 0025 02        		.uleb128 0x2
 1960 0026 01        		.byte	0x1
 1961 0027 06        		.byte	0x6
 1962 0028 0000 0000 		.long	.LASF0
 1963 002c 03        		.uleb128 0x3
 1964 002d 0000 0000 		.long	.LASF2
 1965 0031 02        		.byte	0x2
 1966 0032 7A        		.byte	0x7a
 1967 0033 3700 0000 		.long	0x37
 1968 0037 02        		.uleb128 0x2
 1969 0038 01        		.byte	0x1
 1970 0039 08        		.byte	0x8
 1971 003a 0000 0000 		.long	.LASF1
 1972 003e 04        		.uleb128 0x4
 1973 003f 02        		.byte	0x2
 1974 0040 05        		.byte	0x5
 1975 0041 696E 7400 		.string	"int"
 1976 0045 03        		.uleb128 0x3
 1977 0046 0000 0000 		.long	.LASF3
 1978 004a 02        		.byte	0x2
 1979 004b 7C        		.byte	0x7c
 1980 004c 5000 0000 		.long	0x50
 1981 0050 02        		.uleb128 0x2
 1982 0051 02        		.byte	0x2
 1983 0052 07        		.byte	0x7
 1984 0053 0000 0000 		.long	.LASF4
 1985 0057 02        		.uleb128 0x2
 1986 0058 04        		.byte	0x4
 1987 0059 05        		.byte	0x5
 1988 005a 0000 0000 		.long	.LASF5
 1989 005e 02        		.uleb128 0x2
 1990 005f 04        		.byte	0x4
 1991 0060 07        		.byte	0x7
 1992 0061 0000 0000 		.long	.LASF6
 1993 0065 02        		.uleb128 0x2
 1994 0066 08        		.byte	0x8
 1995 0067 05        		.byte	0x5
GAS LISTING C:\Users\SHERE_~1\AppData\Local\Temp/cc1ChbVl.s 			page 36


 1996 0068 0000 0000 		.long	.LASF7
 1997 006c 02        		.uleb128 0x2
 1998 006d 08        		.byte	0x8
 1999 006e 07        		.byte	0x7
 2000 006f 0000 0000 		.long	.LASF8
 2001 0073 03        		.uleb128 0x3
 2002 0074 0000 0000 		.long	.LASF9
 2003 0078 03        		.byte	0x3
 2004 0079 D4        		.byte	0xd4
 2005 007a 7E00 0000 		.long	0x7e
 2006 007e 05        		.uleb128 0x5
 2007 007f 01        		.byte	0x1
 2008 0080 08        		.byte	0x8
 2009 0081 06        		.uleb128 0x6
 2010 0082 02        		.byte	0x2
 2011 0083 04        		.byte	0x4
 2012 0084 18        		.byte	0x18
 2013 0085 A200 0000 		.long	0xa2
 2014 0089 07        		.uleb128 0x7
 2015 008a 0000 0000 		.long	.LASF10
 2016 008e 00        		.sleb128 0
 2017 008f 07        		.uleb128 0x7
 2018 0090 0000 0000 		.long	.LASF11
 2019 0094 01        		.sleb128 1
 2020 0095 07        		.uleb128 0x7
 2021 0096 0000 0000 		.long	.LASF12
 2022 009a 02        		.sleb128 2
 2023 009b 07        		.uleb128 0x7
 2024 009c 0000 0000 		.long	.LASF13
 2025 00a0 03        		.sleb128 3
 2026 00a1 00        		.byte	0x0
 2027 00a2 03        		.uleb128 0x3
 2028 00a3 0000 0000 		.long	.LASF14
 2029 00a7 04        		.byte	0x4
 2030 00a8 18        		.byte	0x18
 2031 00a9 8100 0000 		.long	0x81
 2032 00ad 08        		.uleb128 0x8
 2033 00ae 0E        		.byte	0xe
 2034 00af 04        		.byte	0x4
 2035 00b0 1A        		.byte	0x1a
 2036 00b1 1401 0000 		.long	0x114
 2037 00b5 09        		.uleb128 0x9
 2038 00b6 0000 0000 		.long	.LASF15
 2039 00ba 04        		.byte	0x4
 2040 00bb 1B        		.byte	0x1b
 2041 00bc 4500 0000 		.long	0x45
 2042 00c0 02        		.byte	0x2
 2043 00c1 23        		.byte	0x23
 2044 00c2 00        		.uleb128 0x0
 2045 00c3 09        		.uleb128 0x9
 2046 00c4 0000 0000 		.long	.LASF16
 2047 00c8 04        		.byte	0x4
 2048 00c9 1B        		.byte	0x1b
 2049 00ca 4500 0000 		.long	0x45
 2050 00ce 02        		.byte	0x2
 2051 00cf 23        		.byte	0x23
 2052 00d0 02        		.uleb128 0x2
GAS LISTING C:\Users\SHERE_~1\AppData\Local\Temp/cc1ChbVl.s 			page 37


 2053 00d1 09        		.uleb128 0x9
 2054 00d2 0000 0000 		.long	.LASF17
 2055 00d6 04        		.byte	0x4
 2056 00d7 1C        		.byte	0x1c
 2057 00d8 A200 0000 		.long	0xa2
 2058 00dc 02        		.byte	0x2
 2059 00dd 23        		.byte	0x23
 2060 00de 04        		.uleb128 0x4
 2061 00df 0A        		.uleb128 0xa
 2062 00e0 7800      		.string	"x"
 2063 00e2 04        		.byte	0x4
 2064 00e3 1D        		.byte	0x1d
 2065 00e4 4500 0000 		.long	0x45
 2066 00e8 02        		.byte	0x2
 2067 00e9 23        		.byte	0x23
 2068 00ea 06        		.uleb128 0x6
 2069 00eb 0A        		.uleb128 0xa
 2070 00ec 7900      		.string	"y"
 2071 00ee 04        		.byte	0x4
 2072 00ef 1D        		.byte	0x1d
 2073 00f0 4500 0000 		.long	0x45
 2074 00f4 02        		.byte	0x2
 2075 00f5 23        		.byte	0x23
 2076 00f6 08        		.uleb128 0x8
 2077 00f7 09        		.uleb128 0x9
 2078 00f8 0000 0000 		.long	.LASF18
 2079 00fc 04        		.byte	0x4
 2080 00fd 1E        		.byte	0x1e
 2081 00fe 4500 0000 		.long	0x45
 2082 0102 02        		.byte	0x2
 2083 0103 23        		.byte	0x23
 2084 0104 0A        		.uleb128 0xa
 2085 0105 09        		.uleb128 0x9
 2086 0106 0000 0000 		.long	.LASF19
 2087 010a 04        		.byte	0x4
 2088 010b 1E        		.byte	0x1e
 2089 010c 4500 0000 		.long	0x45
 2090 0110 02        		.byte	0x2
 2091 0111 23        		.byte	0x23
 2092 0112 0C        		.uleb128 0xc
 2093 0113 00        		.byte	0x0
 2094 0114 0B        		.uleb128 0xb
 2095 0115 6C63 6400 		.string	"lcd"
 2096 0119 04        		.byte	0x4
 2097 011a 1F        		.byte	0x1f
 2098 011b AD00 0000 		.long	0xad
 2099 011f 08        		.uleb128 0x8
 2100 0120 08        		.byte	0x8
 2101 0121 04        		.byte	0x4
 2102 0122 23        		.byte	0x23
 2103 0123 6001 0000 		.long	0x160
 2104 0127 09        		.uleb128 0x9
 2105 0128 0000 0000 		.long	.LASF20
 2106 012c 04        		.byte	0x4
 2107 012d 24        		.byte	0x24
 2108 012e 4500 0000 		.long	0x45
 2109 0132 02        		.byte	0x2
GAS LISTING C:\Users\SHERE_~1\AppData\Local\Temp/cc1ChbVl.s 			page 38


 2110 0133 23        		.byte	0x23
 2111 0134 00        		.uleb128 0x0
 2112 0135 09        		.uleb128 0x9
 2113 0136 0000 0000 		.long	.LASF21
 2114 013a 04        		.byte	0x4
 2115 013b 24        		.byte	0x24
 2116 013c 4500 0000 		.long	0x45
 2117 0140 02        		.byte	0x2
 2118 0141 23        		.byte	0x23
 2119 0142 02        		.uleb128 0x2
 2120 0143 0A        		.uleb128 0xa
 2121 0144 746F 7000 		.string	"top"
 2122 0148 04        		.byte	0x4
 2123 0149 25        		.byte	0x25
 2124 014a 4500 0000 		.long	0x45
 2125 014e 02        		.byte	0x2
 2126 014f 23        		.byte	0x23
 2127 0150 04        		.uleb128 0x4
 2128 0151 09        		.uleb128 0x9
 2129 0152 0000 0000 		.long	.LASF22
 2130 0156 04        		.byte	0x4
 2131 0157 25        		.byte	0x25
 2132 0158 4500 0000 		.long	0x45
 2133 015c 02        		.byte	0x2
 2134 015d 23        		.byte	0x23
 2135 015e 06        		.uleb128 0x6
 2136 015f 00        		.byte	0x0
 2137 0160 03        		.uleb128 0x3
 2138 0161 0000 0000 		.long	.LASF23
 2139 0165 04        		.byte	0x4
 2140 0166 26        		.byte	0x26
 2141 0167 1F01 0000 		.long	0x11f
 2142 016b 0C        		.uleb128 0xc
 2143 016c 01        		.byte	0x1
 2144 016d 0000 0000 		.long	.LASF27
 2145 0171 01        		.byte	0x1
 2146 0172 1F        		.byte	0x1f
 2147 0173 01        		.byte	0x1
 2148 0174 0000 0000 		.long	.LFB3
 2149 0178 0000 0000 		.long	.LFE3
 2150 017c 02        		.byte	0x2
 2151 017d 90        		.byte	0x90
 2152 017e 20        		.uleb128 0x20
 2153 017f 9101 0000 		.long	0x191
 2154 0183 0D        		.uleb128 0xd
 2155 0184 6F00      		.string	"o"
 2156 0186 01        		.byte	0x1
 2157 0187 1E        		.byte	0x1e
 2158 0188 A200 0000 		.long	0xa2
 2159 018c 0000 0000 		.long	.LLST1
 2160 0190 00        		.byte	0x0
 2161 0191 0E        		.uleb128 0xe
 2162 0192 01        		.byte	0x1
 2163 0193 0000 0000 		.long	.LASF24
 2164 0197 01        		.byte	0x1
 2165 0198 3E        		.byte	0x3e
 2166 0199 A200 0000 		.long	0xa2
GAS LISTING C:\Users\SHERE_~1\AppData\Local\Temp/cc1ChbVl.s 			page 39


 2167 019d 0000 0000 		.long	.LFB4
 2168 01a1 0000 0000 		.long	.LFE4
 2169 01a5 02        		.byte	0x2
 2170 01a6 90        		.byte	0x90
 2171 01a7 20        		.uleb128 0x20
 2172 01a8 0E        		.uleb128 0xe
 2173 01a9 01        		.byte	0x1
 2174 01aa 0000 0000 		.long	.LASF25
 2175 01ae 01        		.byte	0x1
 2176 01af 42        		.byte	0x42
 2177 01b0 4500 0000 		.long	0x45
 2178 01b4 0000 0000 		.long	.LFB5
 2179 01b8 0000 0000 		.long	.LFE5
 2180 01bc 02        		.byte	0x2
 2181 01bd 90        		.byte	0x90
 2182 01be 20        		.uleb128 0x20
 2183 01bf 0E        		.uleb128 0xe
 2184 01c0 01        		.byte	0x1
 2185 01c1 0000 0000 		.long	.LASF26
 2186 01c5 01        		.byte	0x1
 2187 01c6 46        		.byte	0x46
 2188 01c7 4500 0000 		.long	0x45
 2189 01cb 0000 0000 		.long	.LFB6
 2190 01cf 0000 0000 		.long	.LFE6
 2191 01d3 02        		.byte	0x2
 2192 01d4 90        		.byte	0x90
 2193 01d5 20        		.uleb128 0x20
 2194 01d6 0C        		.uleb128 0xc
 2195 01d7 01        		.byte	0x1
 2196 01d8 0000 0000 		.long	.LASF28
 2197 01dc 01        		.byte	0x1
 2198 01dd 4B        		.byte	0x4b
 2199 01de 01        		.byte	0x1
 2200 01df 0000 0000 		.long	.LFB7
 2201 01e3 0000 0000 		.long	.LFE7
 2202 01e7 02        		.byte	0x2
 2203 01e8 90        		.byte	0x90
 2204 01e9 20        		.uleb128 0x20
 2205 01ea 2402 0000 		.long	0x224
 2206 01ee 0F        		.uleb128 0xf
 2207 01ef 7200      		.string	"r"
 2208 01f1 01        		.byte	0x1
 2209 01f2 4A        		.byte	0x4a
 2210 01f3 6001 0000 		.long	0x160
 2211 01f7 02        		.byte	0x2
 2212 01f8 8C        		.byte	0x8c
 2213 01f9 01        		.sleb128 1
 2214 01fa 0D        		.uleb128 0xd
 2215 01fb 636F 6C00 		.string	"col"
 2216 01ff 01        		.byte	0x1
 2217 0200 4A        		.byte	0x4a
 2218 0201 4500 0000 		.long	0x45
 2219 0205 0000 0000 		.long	.LLST6
 2220 0209 10        		.uleb128 0x10
 2221 020a 7800      		.string	"x"
 2222 020c 01        		.byte	0x1
 2223 020d 4C        		.byte	0x4c
GAS LISTING C:\Users\SHERE_~1\AppData\Local\Temp/cc1ChbVl.s 			page 40


 2224 020e 4500 0000 		.long	0x45
 2225 0212 0000 0000 		.long	.LLST7
 2226 0216 10        		.uleb128 0x10
 2227 0217 7900      		.string	"y"
 2228 0219 01        		.byte	0x1
 2229 021a 4C        		.byte	0x4c
 2230 021b 4500 0000 		.long	0x45
 2231 021f 0000 0000 		.long	.LLST8
 2232 0223 00        		.byte	0x0
 2233 0224 0C        		.uleb128 0xc
 2234 0225 01        		.byte	0x1
 2235 0226 0000 0000 		.long	.LASF29
 2236 022a 01        		.byte	0x1
 2237 022b 74        		.byte	0x74
 2238 022c 01        		.byte	0x1
 2239 022d 0000 0000 		.long	.LFB8
 2240 0231 0000 0000 		.long	.LFE8
 2241 0235 02        		.byte	0x2
 2242 0236 90        		.byte	0x90
 2243 0237 20        		.uleb128 0x20
 2244 0238 7202 0000 		.long	0x272
 2245 023c 0F        		.uleb128 0xf
 2246 023d 7200      		.string	"r"
 2247 023f 01        		.byte	0x1
 2248 0240 74        		.byte	0x74
 2249 0241 6001 0000 		.long	0x160
 2250 0245 02        		.byte	0x2
 2251 0246 8C        		.byte	0x8c
 2252 0247 01        		.sleb128 1
 2253 0248 0D        		.uleb128 0xd
 2254 0249 636F 6C00 		.string	"col"
 2255 024d 01        		.byte	0x1
 2256 024e 74        		.byte	0x74
 2257 024f 7202 0000 		.long	0x272
 2258 0253 0000 0000 		.long	.LLST10
 2259 0257 10        		.uleb128 0x10
 2260 0258 7800      		.string	"x"
 2261 025a 01        		.byte	0x1
 2262 025b 75        		.byte	0x75
 2263 025c 4500 0000 		.long	0x45
 2264 0260 0000 0000 		.long	.LLST11
 2265 0264 10        		.uleb128 0x10
 2266 0265 7900      		.string	"y"
 2267 0267 01        		.byte	0x1
 2268 0268 75        		.byte	0x75
 2269 0269 4500 0000 		.long	0x45
 2270 026d 0000 0000 		.long	.LLST12
 2271 0271 00        		.byte	0x0
 2272 0272 11        		.uleb128 0x11
 2273 0273 02        		.byte	0x2
 2274 0274 4500 0000 		.long	0x45
 2275 0278 0C        		.uleb128 0xc
 2276 0279 01        		.byte	0x1
 2277 027a 0000 0000 		.long	.LASF30
 2278 027e 01        		.byte	0x1
 2279 027f 85        		.byte	0x85
 2280 0280 01        		.byte	0x1
GAS LISTING C:\Users\SHERE_~1\AppData\Local\Temp/cc1ChbVl.s 			page 41


 2281 0281 0000 0000 		.long	.LFB9
 2282 0285 0000 0000 		.long	.LFE9
 2283 0289 02        		.byte	0x2
 2284 028a 90        		.byte	0x90
 2285 028b 20        		.uleb128 0x20
 2286 028c FC02 0000 		.long	0x2fc
 2287 0290 0F        		.uleb128 0xf
 2288 0291 7200      		.string	"r"
 2289 0293 01        		.byte	0x1
 2290 0294 85        		.byte	0x85
 2291 0295 6001 0000 		.long	0x160
 2292 0299 02        		.byte	0x2
 2293 029a 8C        		.byte	0x8c
 2294 029b 01        		.sleb128 1
 2295 029c 0D        		.uleb128 0xd
 2296 029d 636F 6C00 		.string	"col"
 2297 02a1 01        		.byte	0x1
 2298 02a2 85        		.byte	0x85
 2299 02a3 7202 0000 		.long	0x272
 2300 02a7 0000 0000 		.long	.LLST14
 2301 02ab 0D        		.uleb128 0xd
 2302 02ac 7300      		.string	"s"
 2303 02ae 01        		.byte	0x1
 2304 02af 85        		.byte	0x85
 2305 02b0 3E00 0000 		.long	0x3e
 2306 02b4 0000 0000 		.long	.LLST15
 2307 02b8 10        		.uleb128 0x10
 2308 02b9 7800      		.string	"x"
 2309 02bb 01        		.byte	0x1
 2310 02bc 86        		.byte	0x86
 2311 02bd 4500 0000 		.long	0x45
 2312 02c1 0000 0000 		.long	.LLST16
 2313 02c5 12        		.uleb128 0x12
 2314 02c6 7900      		.string	"y"
 2315 02c8 01        		.byte	0x1
 2316 02c9 86        		.byte	0x86
 2317 02ca 4500 0000 		.long	0x45
 2318 02ce 06        		.byte	0x6
 2319 02cf 64        		.byte	0x64
 2320 02d0 93        		.byte	0x93
 2321 02d1 01        		.uleb128 0x1
 2322 02d2 65        		.byte	0x65
 2323 02d3 93        		.byte	0x93
 2324 02d4 01        		.uleb128 0x1
 2325 02d5 10        		.uleb128 0x10
 2326 02d6 6900      		.string	"i"
 2327 02d8 01        		.byte	0x1
 2328 02d9 86        		.byte	0x86
 2329 02da 4500 0000 		.long	0x45
 2330 02de 0000 0000 		.long	.LLST17
 2331 02e2 12        		.uleb128 0x12
 2332 02e3 6A00      		.string	"j"
 2333 02e5 01        		.byte	0x1
 2334 02e6 86        		.byte	0x86
 2335 02e7 4500 0000 		.long	0x45
 2336 02eb 06        		.byte	0x6
 2337 02ec 62        		.byte	0x62
GAS LISTING C:\Users\SHERE_~1\AppData\Local\Temp/cc1ChbVl.s 			page 42


 2338 02ed 93        		.byte	0x93
 2339 02ee 01        		.uleb128 0x1
 2340 02ef 63        		.byte	0x63
 2341 02f0 93        		.byte	0x93
 2342 02f1 01        		.uleb128 0x1
 2343 02f2 13        		.uleb128 0x13
 2344 02f3 6B00      		.string	"k"
 2345 02f5 01        		.byte	0x1
 2346 02f6 86        		.byte	0x86
 2347 02f7 4500 0000 		.long	0x45
 2348 02fb 00        		.byte	0x0
 2349 02fc 0C        		.uleb128 0xc
 2350 02fd 01        		.byte	0x1
 2351 02fe 0000 0000 		.long	.LASF31
 2352 0302 01        		.byte	0x1
 2353 0303 9E        		.byte	0x9e
 2354 0304 01        		.byte	0x1
 2355 0305 0000 0000 		.long	.LFB10
 2356 0309 0000 0000 		.long	.LFE10
 2357 030d 02        		.byte	0x2
 2358 030e 90        		.byte	0x90
 2359 030f 20        		.uleb128 0x20
 2360 0310 7B03 0000 		.long	0x37b
 2361 0314 0F        		.uleb128 0xf
 2362 0315 7200      		.string	"r"
 2363 0317 01        		.byte	0x1
 2364 0318 9E        		.byte	0x9e
 2365 0319 6001 0000 		.long	0x160
 2366 031d 02        		.byte	0x2
 2367 031e 8C        		.byte	0x8c
 2368 031f 01        		.sleb128 1
 2369 0320 14        		.uleb128 0x14
 2370 0321 0000 0000 		.long	.LASF32
 2371 0325 01        		.byte	0x1
 2372 0326 9E        		.byte	0x9e
 2373 0327 7202 0000 		.long	0x272
 2374 032b 0000 0000 		.long	.LLST19
 2375 032f 14        		.uleb128 0x14
 2376 0330 0000 0000 		.long	.LASF18
 2377 0334 01        		.byte	0x1
 2378 0335 9E        		.byte	0x9e
 2379 0336 4500 0000 		.long	0x45
 2380 033a 0000 0000 		.long	.LLST20
 2381 033e 14        		.uleb128 0x14
 2382 033f 0000 0000 		.long	.LASF19
 2383 0343 01        		.byte	0x1
 2384 0344 9E        		.byte	0x9e
 2385 0345 4500 0000 		.long	0x45
 2386 0349 0000 0000 		.long	.LLST21
 2387 034d 10        		.uleb128 0x10
 2388 034e 7800      		.string	"x"
 2389 0350 01        		.byte	0x1
 2390 0351 9F        		.byte	0x9f
 2391 0352 4500 0000 		.long	0x45
 2392 0356 0000 0000 		.long	.LLST22
 2393 035a 12        		.uleb128 0x12
 2394 035b 7900      		.string	"y"
GAS LISTING C:\Users\SHERE_~1\AppData\Local\Temp/cc1ChbVl.s 			page 43


 2395 035d 01        		.byte	0x1
 2396 035e 9F        		.byte	0x9f
 2397 035f 4500 0000 		.long	0x45
 2398 0363 06        		.byte	0x6
 2399 0364 66        		.byte	0x66
 2400 0365 93        		.byte	0x93
 2401 0366 01        		.uleb128 0x1
 2402 0367 67        		.byte	0x67
 2403 0368 93        		.byte	0x93
 2404 0369 01        		.uleb128 0x1
 2405 036a 12        		.uleb128 0x12
 2406 036b 6900      		.string	"i"
 2407 036d 01        		.byte	0x1
 2408 036e 9F        		.byte	0x9f
 2409 036f 4500 0000 		.long	0x45
 2410 0373 06        		.byte	0x6
 2411 0374 64        		.byte	0x64
 2412 0375 93        		.byte	0x93
 2413 0376 01        		.uleb128 0x1
 2414 0377 65        		.byte	0x65
 2415 0378 93        		.byte	0x93
 2416 0379 01        		.uleb128 0x1
 2417 037a 00        		.byte	0x0
 2418 037b 15        		.uleb128 0x15
 2419 037c 01        		.byte	0x1
 2420 037d 0000 0000 		.long	.LASF46
 2421 0381 01        		.byte	0x1
 2422 0382 B8        		.byte	0xb8
 2423 0383 0000 0000 		.long	.LFB11
 2424 0387 0000 0000 		.long	.LFE11
 2425 038b 02        		.byte	0x2
 2426 038c 90        		.byte	0x90
 2427 038d 20        		.uleb128 0x20
 2428 038e 9F03 0000 		.long	0x39f
 2429 0392 12        		.uleb128 0x12
 2430 0393 7200      		.string	"r"
 2431 0395 01        		.byte	0x1
 2432 0396 BB        		.byte	0xbb
 2433 0397 6001 0000 		.long	0x160
 2434 039b 02        		.byte	0x2
 2435 039c 8C        		.byte	0x8c
 2436 039d 01        		.sleb128 1
 2437 039e 00        		.byte	0x0
 2438 039f 0C        		.uleb128 0xc
 2439 03a0 01        		.byte	0x1
 2440 03a1 0000 0000 		.long	.LASF33
 2441 03a5 01        		.byte	0x1
 2442 03a6 C0        		.byte	0xc0
 2443 03a7 01        		.byte	0x1
 2444 03a8 0000 0000 		.long	.LFB12
 2445 03ac 0000 0000 		.long	.LFE12
 2446 03b0 02        		.byte	0x2
 2447 03b1 90        		.byte	0x90
 2448 03b2 20        		.uleb128 0x20
 2449 03b3 5F04 0000 		.long	0x45f
 2450 03b7 0D        		.uleb128 0xd
 2451 03b8 6300      		.string	"c"
GAS LISTING C:\Users\SHERE_~1\AppData\Local\Temp/cc1ChbVl.s 			page 44


 2452 03ba 01        		.byte	0x1
 2453 03bb BF        		.byte	0xbf
 2454 03bc 5F04 0000 		.long	0x45f
 2455 03c0 0000 0000 		.long	.LLST25
 2456 03c4 12        		.uleb128 0x12
 2457 03c5 7800      		.string	"x"
 2458 03c7 01        		.byte	0x1
 2459 03c8 C1        		.byte	0xc1
 2460 03c9 4500 0000 		.long	0x45
 2461 03cd 06        		.byte	0x6
 2462 03ce 64        		.byte	0x64
 2463 03cf 93        		.byte	0x93
 2464 03d0 01        		.uleb128 0x1
 2465 03d1 65        		.byte	0x65
 2466 03d2 93        		.byte	0x93
 2467 03d3 01        		.uleb128 0x1
 2468 03d4 10        		.uleb128 0x10
 2469 03d5 7900      		.string	"y"
 2470 03d7 01        		.byte	0x1
 2471 03d8 C1        		.byte	0xc1
 2472 03d9 4500 0000 		.long	0x45
 2473 03dd 0000 0000 		.long	.LLST26
 2474 03e1 16        		.uleb128 0x16
 2475 03e2 0000 0000 		.long	.LASF34
 2476 03e6 01        		.byte	0x1
 2477 03e7 C2        		.byte	0xc2
 2478 03e8 6604 0000 		.long	0x466
 2479 03ec 0000 0000 		.long	.LLST27
 2480 03f0 17        		.uleb128 0x17
 2481 03f1 0000 0000 		.long	.LASF35
 2482 03f5 01        		.byte	0x1
 2483 03f6 C3        		.byte	0xc3
 2484 03f7 2C00 0000 		.long	0x2c
 2485 03fb 18        		.uleb128 0x18
 2486 03fc 0000 0000 		.long	.LASF36
 2487 0400 01        		.byte	0x1
 2488 0401 C3        		.byte	0xc3
 2489 0402 2C00 0000 		.long	0x2c
 2490 0406 01        		.byte	0x1
 2491 0407 69        		.byte	0x69
 2492 0408 10        		.uleb128 0x10
 2493 0409 7363 00   		.string	"sc"
 2494 040c 01        		.byte	0x1
 2495 040d C4        		.byte	0xc4
 2496 040e 4500 0000 		.long	0x45
 2497 0412 0000 0000 		.long	.LLST28
 2498 0416 10        		.uleb128 0x10
 2499 0417 6563 00   		.string	"ec"
 2500 041a 01        		.byte	0x1
 2501 041b C4        		.byte	0xc4
 2502 041c 4500 0000 		.long	0x45
 2503 0420 0000 0000 		.long	.LLST29
 2504 0424 10        		.uleb128 0x10
 2505 0425 7370 00   		.string	"sp"
 2506 0428 01        		.byte	0x1
 2507 0429 C4        		.byte	0xc4
 2508 042a 4500 0000 		.long	0x45
GAS LISTING C:\Users\SHERE_~1\AppData\Local\Temp/cc1ChbVl.s 			page 45


 2509 042e 0000 0000 		.long	.LLST30
 2510 0432 10        		.uleb128 0x10
 2511 0433 6570 00   		.string	"ep"
 2512 0436 01        		.byte	0x1
 2513 0437 C4        		.byte	0xc4
 2514 0438 4500 0000 		.long	0x45
 2515 043c 0000 0000 		.long	.LLST31
 2516 0440 19        		.uleb128 0x19
 2517 0441 0000 0000 		.long	.Ldebug_ranges0+0x0
 2518 0445 17        		.uleb128 0x17
 2519 0446 0000 0000 		.long	.LASF37
 2520 044a 01        		.byte	0x1
 2521 044b CF        		.byte	0xcf
 2522 044c 4500 0000 		.long	0x45
 2523 0450 18        		.uleb128 0x18
 2524 0451 0000 0000 		.long	.LASF38
 2525 0455 01        		.byte	0x1
 2526 0456 CF        		.byte	0xcf
 2527 0457 2C00 0000 		.long	0x2c
 2528 045b 01        		.byte	0x1
 2529 045c 6B        		.byte	0x6b
 2530 045d 00        		.byte	0x0
 2531 045e 00        		.byte	0x0
 2532 045f 02        		.uleb128 0x2
 2533 0460 01        		.byte	0x1
 2534 0461 08        		.byte	0x8
 2535 0462 0000 0000 		.long	.LASF39
 2536 0466 11        		.uleb128 0x11
 2537 0467 02        		.byte	0x2
 2538 0468 6C04 0000 		.long	0x46c
 2539 046c 1A        		.uleb128 0x1a
 2540 046d 7300 0000 		.long	0x73
 2541 0471 0C        		.uleb128 0xc
 2542 0472 01        		.byte	0x1
 2543 0473 0000 0000 		.long	.LASF40
 2544 0477 01        		.byte	0x1
 2545 0478 DF        		.byte	0xdf
 2546 0479 01        		.byte	0x1
 2547 047a 0000 0000 		.long	.LFB13
 2548 047e 0000 0000 		.long	.LFE13
 2549 0482 02        		.byte	0x2
 2550 0483 90        		.byte	0x90
 2551 0484 20        		.uleb128 0x20
 2552 0485 A604 0000 		.long	0x4a6
 2553 0489 0D        		.uleb128 0xd
 2554 048a 7374 7200 		.string	"str"
 2555 048e 01        		.byte	0x1
 2556 048f DE        		.byte	0xde
 2557 0490 A604 0000 		.long	0x4a6
 2558 0494 0000 0000 		.long	.LLST33
 2559 0498 10        		.uleb128 0x10
 2560 0499 6900      		.string	"i"
 2561 049b 01        		.byte	0x1
 2562 049c E0        		.byte	0xe0
 2563 049d 2C00 0000 		.long	0x2c
 2564 04a1 0000 0000 		.long	.LLST34
 2565 04a5 00        		.byte	0x0
GAS LISTING C:\Users\SHERE_~1\AppData\Local\Temp/cc1ChbVl.s 			page 46


 2566 04a6 11        		.uleb128 0x11
 2567 04a7 02        		.byte	0x2
 2568 04a8 5F04 0000 		.long	0x45f
 2569 04ac 1B        		.uleb128 0x1b
 2570 04ad 01        		.byte	0x1
 2571 04ae 0000 0000 		.long	.LASF47
 2572 04b2 01        		.byte	0x1
 2573 04b3 0F        		.byte	0xf
 2574 04b4 0000 0000 		.long	.LFB2
 2575 04b8 0000 0000 		.long	.LFE2
 2576 04bc 02        		.byte	0x2
 2577 04bd 90        		.byte	0x90
 2578 04be 20        		.uleb128 0x20
 2579 04bf 1C        		.uleb128 0x1c
 2580 04c0 2C00 0000 		.long	0x2c
 2581 04c4 CA04 0000 		.long	0x4ca
 2582 04c8 1D        		.uleb128 0x1d
 2583 04c9 00        		.byte	0x0
 2584 04ca 1E        		.uleb128 0x1e
 2585 04cb 0000 0000 		.long	.LASF41
 2586 04cf 05        		.byte	0x5
 2587 04d0 0C        		.byte	0xc
 2588 04d1 D704 0000 		.long	0x4d7
 2589 04d5 01        		.byte	0x1
 2590 04d6 01        		.byte	0x1
 2591 04d7 1A        		.uleb128 0x1a
 2592 04d8 BF04 0000 		.long	0x4bf
 2593 04dc 1F        		.uleb128 0x1f
 2594 04dd 0000 0000 		.long	.LASF42
 2595 04e1 01        		.byte	0x1
 2596 04e2 0B        		.byte	0xb
 2597 04e3 1401 0000 		.long	0x114
 2598 04e7 01        		.byte	0x1
 2599 04e8 05        		.byte	0x5
 2600 04e9 03        		.byte	0x3
 2601 04ea 0000 0000 		.long	display
 2602 04ee 00        		.byte	0x0
 2603               		.section	.debug_abbrev
 2604 0000 01        		.uleb128 0x1
 2605 0001 11        		.uleb128 0x11
 2606 0002 01        		.byte	0x1
 2607 0003 25        		.uleb128 0x25
 2608 0004 0E        		.uleb128 0xe
 2609 0005 13        		.uleb128 0x13
 2610 0006 0B        		.uleb128 0xb
 2611 0007 03        		.uleb128 0x3
 2612 0008 0E        		.uleb128 0xe
 2613 0009 1B        		.uleb128 0x1b
 2614 000a 0E        		.uleb128 0xe
 2615 000b 11        		.uleb128 0x11
 2616 000c 01        		.uleb128 0x1
 2617 000d 12        		.uleb128 0x12
 2618 000e 01        		.uleb128 0x1
 2619 000f 10        		.uleb128 0x10
 2620 0010 06        		.uleb128 0x6
 2621 0011 00        		.byte	0x0
 2622 0012 00        		.byte	0x0
GAS LISTING C:\Users\SHERE_~1\AppData\Local\Temp/cc1ChbVl.s 			page 47


 2623 0013 02        		.uleb128 0x2
 2624 0014 24        		.uleb128 0x24
 2625 0015 00        		.byte	0x0
 2626 0016 0B        		.uleb128 0xb
 2627 0017 0B        		.uleb128 0xb
 2628 0018 3E        		.uleb128 0x3e
 2629 0019 0B        		.uleb128 0xb
 2630 001a 03        		.uleb128 0x3
 2631 001b 0E        		.uleb128 0xe
 2632 001c 00        		.byte	0x0
 2633 001d 00        		.byte	0x0
 2634 001e 03        		.uleb128 0x3
 2635 001f 16        		.uleb128 0x16
 2636 0020 00        		.byte	0x0
 2637 0021 03        		.uleb128 0x3
 2638 0022 0E        		.uleb128 0xe
 2639 0023 3A        		.uleb128 0x3a
 2640 0024 0B        		.uleb128 0xb
 2641 0025 3B        		.uleb128 0x3b
 2642 0026 0B        		.uleb128 0xb
 2643 0027 49        		.uleb128 0x49
 2644 0028 13        		.uleb128 0x13
 2645 0029 00        		.byte	0x0
 2646 002a 00        		.byte	0x0
 2647 002b 04        		.uleb128 0x4
 2648 002c 24        		.uleb128 0x24
 2649 002d 00        		.byte	0x0
 2650 002e 0B        		.uleb128 0xb
 2651 002f 0B        		.uleb128 0xb
 2652 0030 3E        		.uleb128 0x3e
 2653 0031 0B        		.uleb128 0xb
 2654 0032 03        		.uleb128 0x3
 2655 0033 08        		.uleb128 0x8
 2656 0034 00        		.byte	0x0
 2657 0035 00        		.byte	0x0
 2658 0036 05        		.uleb128 0x5
 2659 0037 24        		.uleb128 0x24
 2660 0038 00        		.byte	0x0
 2661 0039 0B        		.uleb128 0xb
 2662 003a 0B        		.uleb128 0xb
 2663 003b 3E        		.uleb128 0x3e
 2664 003c 0B        		.uleb128 0xb
 2665 003d 00        		.byte	0x0
 2666 003e 00        		.byte	0x0
 2667 003f 06        		.uleb128 0x6
 2668 0040 04        		.uleb128 0x4
 2669 0041 01        		.byte	0x1
 2670 0042 0B        		.uleb128 0xb
 2671 0043 0B        		.uleb128 0xb
 2672 0044 3A        		.uleb128 0x3a
 2673 0045 0B        		.uleb128 0xb
 2674 0046 3B        		.uleb128 0x3b
 2675 0047 0B        		.uleb128 0xb
 2676 0048 01        		.uleb128 0x1
 2677 0049 13        		.uleb128 0x13
 2678 004a 00        		.byte	0x0
 2679 004b 00        		.byte	0x0
GAS LISTING C:\Users\SHERE_~1\AppData\Local\Temp/cc1ChbVl.s 			page 48


 2680 004c 07        		.uleb128 0x7
 2681 004d 28        		.uleb128 0x28
 2682 004e 00        		.byte	0x0
 2683 004f 03        		.uleb128 0x3
 2684 0050 0E        		.uleb128 0xe
 2685 0051 1C        		.uleb128 0x1c
 2686 0052 0D        		.uleb128 0xd
 2687 0053 00        		.byte	0x0
 2688 0054 00        		.byte	0x0
 2689 0055 08        		.uleb128 0x8
 2690 0056 13        		.uleb128 0x13
 2691 0057 01        		.byte	0x1
 2692 0058 0B        		.uleb128 0xb
 2693 0059 0B        		.uleb128 0xb
 2694 005a 3A        		.uleb128 0x3a
 2695 005b 0B        		.uleb128 0xb
 2696 005c 3B        		.uleb128 0x3b
 2697 005d 0B        		.uleb128 0xb
 2698 005e 01        		.uleb128 0x1
 2699 005f 13        		.uleb128 0x13
 2700 0060 00        		.byte	0x0
 2701 0061 00        		.byte	0x0
 2702 0062 09        		.uleb128 0x9
 2703 0063 0D        		.uleb128 0xd
 2704 0064 00        		.byte	0x0
 2705 0065 03        		.uleb128 0x3
 2706 0066 0E        		.uleb128 0xe
 2707 0067 3A        		.uleb128 0x3a
 2708 0068 0B        		.uleb128 0xb
 2709 0069 3B        		.uleb128 0x3b
 2710 006a 0B        		.uleb128 0xb
 2711 006b 49        		.uleb128 0x49
 2712 006c 13        		.uleb128 0x13
 2713 006d 38        		.uleb128 0x38
 2714 006e 0A        		.uleb128 0xa
 2715 006f 00        		.byte	0x0
 2716 0070 00        		.byte	0x0
 2717 0071 0A        		.uleb128 0xa
 2718 0072 0D        		.uleb128 0xd
 2719 0073 00        		.byte	0x0
 2720 0074 03        		.uleb128 0x3
 2721 0075 08        		.uleb128 0x8
 2722 0076 3A        		.uleb128 0x3a
 2723 0077 0B        		.uleb128 0xb
 2724 0078 3B        		.uleb128 0x3b
 2725 0079 0B        		.uleb128 0xb
 2726 007a 49        		.uleb128 0x49
 2727 007b 13        		.uleb128 0x13
 2728 007c 38        		.uleb128 0x38
 2729 007d 0A        		.uleb128 0xa
 2730 007e 00        		.byte	0x0
 2731 007f 00        		.byte	0x0
 2732 0080 0B        		.uleb128 0xb
 2733 0081 16        		.uleb128 0x16
 2734 0082 00        		.byte	0x0
 2735 0083 03        		.uleb128 0x3
 2736 0084 08        		.uleb128 0x8
GAS LISTING C:\Users\SHERE_~1\AppData\Local\Temp/cc1ChbVl.s 			page 49


 2737 0085 3A        		.uleb128 0x3a
 2738 0086 0B        		.uleb128 0xb
 2739 0087 3B        		.uleb128 0x3b
 2740 0088 0B        		.uleb128 0xb
 2741 0089 49        		.uleb128 0x49
 2742 008a 13        		.uleb128 0x13
 2743 008b 00        		.byte	0x0
 2744 008c 00        		.byte	0x0
 2745 008d 0C        		.uleb128 0xc
 2746 008e 2E        		.uleb128 0x2e
 2747 008f 01        		.byte	0x1
 2748 0090 3F        		.uleb128 0x3f
 2749 0091 0C        		.uleb128 0xc
 2750 0092 03        		.uleb128 0x3
 2751 0093 0E        		.uleb128 0xe
 2752 0094 3A        		.uleb128 0x3a
 2753 0095 0B        		.uleb128 0xb
 2754 0096 3B        		.uleb128 0x3b
 2755 0097 0B        		.uleb128 0xb
 2756 0098 27        		.uleb128 0x27
 2757 0099 0C        		.uleb128 0xc
 2758 009a 11        		.uleb128 0x11
 2759 009b 01        		.uleb128 0x1
 2760 009c 12        		.uleb128 0x12
 2761 009d 01        		.uleb128 0x1
 2762 009e 40        		.uleb128 0x40
 2763 009f 0A        		.uleb128 0xa
 2764 00a0 01        		.uleb128 0x1
 2765 00a1 13        		.uleb128 0x13
 2766 00a2 00        		.byte	0x0
 2767 00a3 00        		.byte	0x0
 2768 00a4 0D        		.uleb128 0xd
 2769 00a5 05        		.uleb128 0x5
 2770 00a6 00        		.byte	0x0
 2771 00a7 03        		.uleb128 0x3
 2772 00a8 08        		.uleb128 0x8
 2773 00a9 3A        		.uleb128 0x3a
 2774 00aa 0B        		.uleb128 0xb
 2775 00ab 3B        		.uleb128 0x3b
 2776 00ac 0B        		.uleb128 0xb
 2777 00ad 49        		.uleb128 0x49
 2778 00ae 13        		.uleb128 0x13
 2779 00af 02        		.uleb128 0x2
 2780 00b0 06        		.uleb128 0x6
 2781 00b1 00        		.byte	0x0
 2782 00b2 00        		.byte	0x0
 2783 00b3 0E        		.uleb128 0xe
 2784 00b4 2E        		.uleb128 0x2e
 2785 00b5 00        		.byte	0x0
 2786 00b6 3F        		.uleb128 0x3f
 2787 00b7 0C        		.uleb128 0xc
 2788 00b8 03        		.uleb128 0x3
 2789 00b9 0E        		.uleb128 0xe
 2790 00ba 3A        		.uleb128 0x3a
 2791 00bb 0B        		.uleb128 0xb
 2792 00bc 3B        		.uleb128 0x3b
 2793 00bd 0B        		.uleb128 0xb
GAS LISTING C:\Users\SHERE_~1\AppData\Local\Temp/cc1ChbVl.s 			page 50


 2794 00be 49        		.uleb128 0x49
 2795 00bf 13        		.uleb128 0x13
 2796 00c0 11        		.uleb128 0x11
 2797 00c1 01        		.uleb128 0x1
 2798 00c2 12        		.uleb128 0x12
 2799 00c3 01        		.uleb128 0x1
 2800 00c4 40        		.uleb128 0x40
 2801 00c5 0A        		.uleb128 0xa
 2802 00c6 00        		.byte	0x0
 2803 00c7 00        		.byte	0x0
 2804 00c8 0F        		.uleb128 0xf
 2805 00c9 05        		.uleb128 0x5
 2806 00ca 00        		.byte	0x0
 2807 00cb 03        		.uleb128 0x3
 2808 00cc 08        		.uleb128 0x8
 2809 00cd 3A        		.uleb128 0x3a
 2810 00ce 0B        		.uleb128 0xb
 2811 00cf 3B        		.uleb128 0x3b
 2812 00d0 0B        		.uleb128 0xb
 2813 00d1 49        		.uleb128 0x49
 2814 00d2 13        		.uleb128 0x13
 2815 00d3 02        		.uleb128 0x2
 2816 00d4 0A        		.uleb128 0xa
 2817 00d5 00        		.byte	0x0
 2818 00d6 00        		.byte	0x0
 2819 00d7 10        		.uleb128 0x10
 2820 00d8 34        		.uleb128 0x34
 2821 00d9 00        		.byte	0x0
 2822 00da 03        		.uleb128 0x3
 2823 00db 08        		.uleb128 0x8
 2824 00dc 3A        		.uleb128 0x3a
 2825 00dd 0B        		.uleb128 0xb
 2826 00de 3B        		.uleb128 0x3b
 2827 00df 0B        		.uleb128 0xb
 2828 00e0 49        		.uleb128 0x49
 2829 00e1 13        		.uleb128 0x13
 2830 00e2 02        		.uleb128 0x2
 2831 00e3 06        		.uleb128 0x6
 2832 00e4 00        		.byte	0x0
 2833 00e5 00        		.byte	0x0
 2834 00e6 11        		.uleb128 0x11
 2835 00e7 0F        		.uleb128 0xf
 2836 00e8 00        		.byte	0x0
 2837 00e9 0B        		.uleb128 0xb
 2838 00ea 0B        		.uleb128 0xb
 2839 00eb 49        		.uleb128 0x49
 2840 00ec 13        		.uleb128 0x13
 2841 00ed 00        		.byte	0x0
 2842 00ee 00        		.byte	0x0
 2843 00ef 12        		.uleb128 0x12
 2844 00f0 34        		.uleb128 0x34
 2845 00f1 00        		.byte	0x0
 2846 00f2 03        		.uleb128 0x3
 2847 00f3 08        		.uleb128 0x8
 2848 00f4 3A        		.uleb128 0x3a
 2849 00f5 0B        		.uleb128 0xb
 2850 00f6 3B        		.uleb128 0x3b
GAS LISTING C:\Users\SHERE_~1\AppData\Local\Temp/cc1ChbVl.s 			page 51


 2851 00f7 0B        		.uleb128 0xb
 2852 00f8 49        		.uleb128 0x49
 2853 00f9 13        		.uleb128 0x13
 2854 00fa 02        		.uleb128 0x2
 2855 00fb 0A        		.uleb128 0xa
 2856 00fc 00        		.byte	0x0
 2857 00fd 00        		.byte	0x0
 2858 00fe 13        		.uleb128 0x13
 2859 00ff 34        		.uleb128 0x34
 2860 0100 00        		.byte	0x0
 2861 0101 03        		.uleb128 0x3
 2862 0102 08        		.uleb128 0x8
 2863 0103 3A        		.uleb128 0x3a
 2864 0104 0B        		.uleb128 0xb
 2865 0105 3B        		.uleb128 0x3b
 2866 0106 0B        		.uleb128 0xb
 2867 0107 49        		.uleb128 0x49
 2868 0108 13        		.uleb128 0x13
 2869 0109 00        		.byte	0x0
 2870 010a 00        		.byte	0x0
 2871 010b 14        		.uleb128 0x14
 2872 010c 05        		.uleb128 0x5
 2873 010d 00        		.byte	0x0
 2874 010e 03        		.uleb128 0x3
 2875 010f 0E        		.uleb128 0xe
 2876 0110 3A        		.uleb128 0x3a
 2877 0111 0B        		.uleb128 0xb
 2878 0112 3B        		.uleb128 0x3b
 2879 0113 0B        		.uleb128 0xb
 2880 0114 49        		.uleb128 0x49
 2881 0115 13        		.uleb128 0x13
 2882 0116 02        		.uleb128 0x2
 2883 0117 06        		.uleb128 0x6
 2884 0118 00        		.byte	0x0
 2885 0119 00        		.byte	0x0
 2886 011a 15        		.uleb128 0x15
 2887 011b 2E        		.uleb128 0x2e
 2888 011c 01        		.byte	0x1
 2889 011d 3F        		.uleb128 0x3f
 2890 011e 0C        		.uleb128 0xc
 2891 011f 03        		.uleb128 0x3
 2892 0120 0E        		.uleb128 0xe
 2893 0121 3A        		.uleb128 0x3a
 2894 0122 0B        		.uleb128 0xb
 2895 0123 3B        		.uleb128 0x3b
 2896 0124 0B        		.uleb128 0xb
 2897 0125 11        		.uleb128 0x11
 2898 0126 01        		.uleb128 0x1
 2899 0127 12        		.uleb128 0x12
 2900 0128 01        		.uleb128 0x1
 2901 0129 40        		.uleb128 0x40
 2902 012a 0A        		.uleb128 0xa
 2903 012b 01        		.uleb128 0x1
 2904 012c 13        		.uleb128 0x13
 2905 012d 00        		.byte	0x0
 2906 012e 00        		.byte	0x0
 2907 012f 16        		.uleb128 0x16
GAS LISTING C:\Users\SHERE_~1\AppData\Local\Temp/cc1ChbVl.s 			page 52


 2908 0130 34        		.uleb128 0x34
 2909 0131 00        		.byte	0x0
 2910 0132 03        		.uleb128 0x3
 2911 0133 0E        		.uleb128 0xe
 2912 0134 3A        		.uleb128 0x3a
 2913 0135 0B        		.uleb128 0xb
 2914 0136 3B        		.uleb128 0x3b
 2915 0137 0B        		.uleb128 0xb
 2916 0138 49        		.uleb128 0x49
 2917 0139 13        		.uleb128 0x13
 2918 013a 02        		.uleb128 0x2
 2919 013b 06        		.uleb128 0x6
 2920 013c 00        		.byte	0x0
 2921 013d 00        		.byte	0x0
 2922 013e 17        		.uleb128 0x17
 2923 013f 34        		.uleb128 0x34
 2924 0140 00        		.byte	0x0
 2925 0141 03        		.uleb128 0x3
 2926 0142 0E        		.uleb128 0xe
 2927 0143 3A        		.uleb128 0x3a
 2928 0144 0B        		.uleb128 0xb
 2929 0145 3B        		.uleb128 0x3b
 2930 0146 0B        		.uleb128 0xb
 2931 0147 49        		.uleb128 0x49
 2932 0148 13        		.uleb128 0x13
 2933 0149 00        		.byte	0x0
 2934 014a 00        		.byte	0x0
 2935 014b 18        		.uleb128 0x18
 2936 014c 34        		.uleb128 0x34
 2937 014d 00        		.byte	0x0
 2938 014e 03        		.uleb128 0x3
 2939 014f 0E        		.uleb128 0xe
 2940 0150 3A        		.uleb128 0x3a
 2941 0151 0B        		.uleb128 0xb
 2942 0152 3B        		.uleb128 0x3b
 2943 0153 0B        		.uleb128 0xb
 2944 0154 49        		.uleb128 0x49
 2945 0155 13        		.uleb128 0x13
 2946 0156 02        		.uleb128 0x2
 2947 0157 0A        		.uleb128 0xa
 2948 0158 00        		.byte	0x0
 2949 0159 00        		.byte	0x0
 2950 015a 19        		.uleb128 0x19
 2951 015b 0B        		.uleb128 0xb
 2952 015c 01        		.byte	0x1
 2953 015d 55        		.uleb128 0x55
 2954 015e 06        		.uleb128 0x6
 2955 015f 00        		.byte	0x0
 2956 0160 00        		.byte	0x0
 2957 0161 1A        		.uleb128 0x1a
 2958 0162 26        		.uleb128 0x26
 2959 0163 00        		.byte	0x0
 2960 0164 49        		.uleb128 0x49
 2961 0165 13        		.uleb128 0x13
 2962 0166 00        		.byte	0x0
 2963 0167 00        		.byte	0x0
 2964 0168 1B        		.uleb128 0x1b
GAS LISTING C:\Users\SHERE_~1\AppData\Local\Temp/cc1ChbVl.s 			page 53


 2965 0169 2E        		.uleb128 0x2e
 2966 016a 00        		.byte	0x0
 2967 016b 3F        		.uleb128 0x3f
 2968 016c 0C        		.uleb128 0xc
 2969 016d 03        		.uleb128 0x3
 2970 016e 0E        		.uleb128 0xe
 2971 016f 3A        		.uleb128 0x3a
 2972 0170 0B        		.uleb128 0xb
 2973 0171 3B        		.uleb128 0x3b
 2974 0172 0B        		.uleb128 0xb
 2975 0173 11        		.uleb128 0x11
 2976 0174 01        		.uleb128 0x1
 2977 0175 12        		.uleb128 0x12
 2978 0176 01        		.uleb128 0x1
 2979 0177 40        		.uleb128 0x40
 2980 0178 0A        		.uleb128 0xa
 2981 0179 00        		.byte	0x0
 2982 017a 00        		.byte	0x0
 2983 017b 1C        		.uleb128 0x1c
 2984 017c 01        		.uleb128 0x1
 2985 017d 01        		.byte	0x1
 2986 017e 49        		.uleb128 0x49
 2987 017f 13        		.uleb128 0x13
 2988 0180 01        		.uleb128 0x1
 2989 0181 13        		.uleb128 0x13
 2990 0182 00        		.byte	0x0
 2991 0183 00        		.byte	0x0
 2992 0184 1D        		.uleb128 0x1d
 2993 0185 21        		.uleb128 0x21
 2994 0186 00        		.byte	0x0
 2995 0187 00        		.byte	0x0
 2996 0188 00        		.byte	0x0
 2997 0189 1E        		.uleb128 0x1e
 2998 018a 34        		.uleb128 0x34
 2999 018b 00        		.byte	0x0
 3000 018c 03        		.uleb128 0x3
 3001 018d 0E        		.uleb128 0xe
 3002 018e 3A        		.uleb128 0x3a
 3003 018f 0B        		.uleb128 0xb
 3004 0190 3B        		.uleb128 0x3b
 3005 0191 0B        		.uleb128 0xb
 3006 0192 49        		.uleb128 0x49
 3007 0193 13        		.uleb128 0x13
 3008 0194 3F        		.uleb128 0x3f
 3009 0195 0C        		.uleb128 0xc
 3010 0196 3C        		.uleb128 0x3c
 3011 0197 0C        		.uleb128 0xc
 3012 0198 00        		.byte	0x0
 3013 0199 00        		.byte	0x0
 3014 019a 1F        		.uleb128 0x1f
 3015 019b 34        		.uleb128 0x34
 3016 019c 00        		.byte	0x0
 3017 019d 03        		.uleb128 0x3
 3018 019e 0E        		.uleb128 0xe
 3019 019f 3A        		.uleb128 0x3a
 3020 01a0 0B        		.uleb128 0xb
 3021 01a1 3B        		.uleb128 0x3b
GAS LISTING C:\Users\SHERE_~1\AppData\Local\Temp/cc1ChbVl.s 			page 54


 3022 01a2 0B        		.uleb128 0xb
 3023 01a3 49        		.uleb128 0x49
 3024 01a4 13        		.uleb128 0x13
 3025 01a5 3F        		.uleb128 0x3f
 3026 01a6 0C        		.uleb128 0xc
 3027 01a7 02        		.uleb128 0x2
 3028 01a8 0A        		.uleb128 0xa
 3029 01a9 00        		.byte	0x0
 3030 01aa 00        		.byte	0x0
 3031 01ab 00        		.byte	0x0
 3032               		.section	.debug_pubnames,"",@progbits
 3033 0000 0A01 0000 		.long	0x10a
 3034 0004 0200      		.word	0x2
 3035 0006 0000 0000 		.long	.Ldebug_info0
 3036 000a EF04 0000 		.long	0x4ef
 3037 000e 6B01 0000 		.long	0x16b
 3038 0012 7365 745F 		.string	"set_orientation"
 3038      6F72 6965 
 3038      6E74 6174 
 3038      696F 6E00 
 3039 0022 9101 0000 		.long	0x191
 3040 0026 6765 745F 		.string	"get_orientation"
 3040      6F72 6965 
 3040      6E74 6174 
 3040      696F 6E00 
 3041 0036 A801 0000 		.long	0x1a8
 3042 003a 6765 745F 		.string	"get_width"
 3042      7769 6474 
 3042      6800 
 3043 0044 BF01 0000 		.long	0x1bf
 3044 0048 6765 745F 		.string	"get_height"
 3044      6865 6967 
 3044      6874 00
 3045 0053 D601 0000 		.long	0x1d6
 3046 0057 6669 6C6C 		.string	"fill_rectangle"
 3046      5F72 6563 
 3046      7461 6E67 
 3046      6C65 00
 3047 0066 2402 0000 		.long	0x224
 3048 006a 6669 6C6C 		.string	"fill_rectangle_indexed"
 3048      5F72 6563 
 3048      7461 6E67 
 3048      6C65 5F69 
 3048      6E64 6578 
 3049 0081 7802 0000 		.long	0x278
 3050 0085 6669 6C6C 		.string	"fill_rectangle_indexed_scale"
 3050      5F72 6563 
 3050      7461 6E67 
 3050      6C65 5F69 
 3050      6E64 6578 
 3051 00a2 FC02 0000 		.long	0x2fc
 3052 00a6 6669 6C6C 		.string	"fill_rectangle_bitmap"
 3052      5F72 6563 
 3052      7461 6E67 
 3052      6C65 5F62 
 3052      6974 6D61 
 3053 00bc 7B03 0000 		.long	0x37b
GAS LISTING C:\Users\SHERE_~1\AppData\Local\Temp/cc1ChbVl.s 			page 55


 3054 00c0 636C 6561 		.string	"clear_screen"
 3054      725F 7363 
 3054      7265 656E 
 3054      00
 3055 00cd 9F03 0000 		.long	0x39f
 3056 00d1 6469 7370 		.string	"display_char"
 3056      6C61 795F 
 3056      6368 6172 
 3056      00
 3057 00de 7104 0000 		.long	0x471
 3058 00e2 6469 7370 		.string	"display_string"
 3058      6C61 795F 
 3058      7374 7269 
 3058      6E67 00
 3059 00f1 AC04 0000 		.long	0x4ac
 3060 00f5 696E 6974 		.string	"init_lcd"
 3060      5F6C 6364 
 3060      00
 3061 00fe DC04 0000 		.long	0x4dc
 3062 0102 6469 7370 		.string	"display"
 3062      6C61 7900 
 3063 010a 0000 0000 		.long	0x0
 3064               		.section	.debug_aranges,"",@progbits
 3065 0000 1C00 0000 		.long	0x1c
 3066 0004 0200      		.word	0x2
 3067 0006 0000 0000 		.long	.Ldebug_info0
 3068 000a 04        		.byte	0x4
 3069 000b 00        		.byte	0x0
 3070 000c 0000      		.word	0x0
 3071 000e 0000      		.word	0x0
 3072 0010 0000 0000 		.long	.Ltext0
 3073 0014 FA07 0000 		.long	.Letext0-.Ltext0
 3074 0018 0000 0000 		.long	0x0
 3075 001c 0000 0000 		.long	0x0
 3076               		.section	.debug_ranges,"",@progbits
 3077               	.Ldebug_ranges0:
 3078 0000 DA06 0000 		.long	.LBB2-.Ltext0
 3079 0004 E406 0000 		.long	.LBE2-.Ltext0
 3080 0008 1207 0000 		.long	.LBB3-.Ltext0
 3081 000c 1607 0000 		.long	.LBE3-.Ltext0
 3082 0010 0000 0000 		.long	0x0
 3083 0014 0000 0000 		.long	0x0
 3084               		.section	.debug_line
 3085 0000 3505 0000 		.long	.LELT0-.LSLT0
 3086               	.LSLT0:
 3087 0004 0200      		.word	0x2
 3088 0006 A800 0000 		.long	.LELTP0-.LASLTP0
 3089               	.LASLTP0:
 3090 000a 01        		.byte	0x1
 3091 000b 01        		.byte	0x1
 3092 000c F6        		.byte	0xf6
 3093 000d F5        		.byte	0xf5
 3094 000e 0A        		.byte	0xa
 3095 000f 00        		.byte	0x0
 3096 0010 01        		.byte	0x1
 3097 0011 01        		.byte	0x1
 3098 0012 01        		.byte	0x1
GAS LISTING C:\Users\SHERE_~1\AppData\Local\Temp/cc1ChbVl.s 			page 56


 3099 0013 01        		.byte	0x1
 3100 0014 00        		.byte	0x0
 3101 0015 00        		.byte	0x0
 3102 0016 00        		.byte	0x0
 3103 0017 01        		.byte	0x1
 3104 0018 633A 2F77 		.ascii	"c:/winavr-20100110/lib/gcc/../../avr/include"
 3104      696E 6176 
 3104      722D 3230 
 3104      3130 3031 
 3104      3130 2F6C 
 3105 0044 00        		.byte	0
 3106 0045 633A 2F77 		.ascii	"c:/winavr-20100110/lib/gcc/../../avr/include/avr"
 3106      696E 6176 
 3106      722D 3230 
 3106      3130 3031 
 3106      3130 2F6C 
 3107 0075 00        		.byte	0
 3108 0076 00        		.byte	0x0
 3109 0077 6C63 642E 		.string	"lcd.c"
 3109      6300 
 3110 007d 00        		.uleb128 0x0
 3111 007e 00        		.uleb128 0x0
 3112 007f 00        		.uleb128 0x0
 3113 0080 7374 6469 		.string	"stdint.h"
 3113      6E74 2E68 
 3113      00
 3114 0089 01        		.uleb128 0x1
 3115 008a 00        		.uleb128 0x0
 3116 008b 00        		.uleb128 0x0
 3117 008c 6176 722F 		.string	"avr/pgmspace.h"
 3117      7067 6D73 
 3117      7061 6365 
 3117      2E68 00
 3118 009b 01        		.uleb128 0x1
 3119 009c 00        		.uleb128 0x0
 3120 009d 00        		.uleb128 0x0
 3121 009e 6C63 642E 		.string	"lcd.h"
 3121      6800 
 3122 00a4 00        		.uleb128 0x0
 3123 00a5 00        		.uleb128 0x0
 3124 00a6 00        		.uleb128 0x0
 3125 00a7 666F 6E74 		.string	"font.h"
 3125      2E68 00
 3126 00ae 00        		.uleb128 0x0
 3127 00af 00        		.uleb128 0x0
 3128 00b0 00        		.uleb128 0x0
 3129 00b1 00        		.byte	0x0
 3130               	.LELTP0:
 3131 00b2 00        		.byte	0x0
 3132 00b3 05        		.uleb128 0x5
 3133 00b4 02        		.byte	0x2
 3134 00b5 0000 0000 		.long	.LM1
 3135 00b9 32        		.byte	0x32
 3136 00ba 00        		.byte	0x0
 3137 00bb 05        		.uleb128 0x5
 3138 00bc 02        		.byte	0x2
 3139 00bd 0000 0000 		.long	.LM2
GAS LISTING C:\Users\SHERE_~1\AppData\Local\Temp/cc1ChbVl.s 			page 57


 3140 00c1 15        		.byte	0x15
 3141 00c2 00        		.byte	0x0
 3142 00c3 05        		.uleb128 0x5
 3143 00c4 02        		.byte	0x2
 3144 00c5 0000 0000 		.long	.LM3
 3145 00c9 15        		.byte	0x15
 3146 00ca 00        		.byte	0x0
 3147 00cb 05        		.uleb128 0x5
 3148 00cc 02        		.byte	0x2
 3149 00cd 0000 0000 		.long	.LM4
 3150 00d1 15        		.byte	0x15
 3151 00d2 00        		.byte	0x0
 3152 00d3 05        		.uleb128 0x5
 3153 00d4 02        		.byte	0x2
 3154 00d5 0000 0000 		.long	.LM5
 3155 00d9 15        		.byte	0x15
 3156 00da 00        		.byte	0x0
 3157 00db 05        		.uleb128 0x5
 3158 00dc 02        		.byte	0x2
 3159 00dd 0000 0000 		.long	.LM6
 3160 00e1 15        		.byte	0x15
 3161 00e2 00        		.byte	0x0
 3162 00e3 05        		.uleb128 0x5
 3163 00e4 02        		.byte	0x2
 3164 00e5 0000 0000 		.long	.LM7
 3165 00e9 15        		.byte	0x15
 3166 00ea 00        		.byte	0x0
 3167 00eb 05        		.uleb128 0x5
 3168 00ec 02        		.byte	0x2
 3169 00ed 0000 0000 		.long	.LM8
 3170 00f1 16        		.byte	0x16
 3171 00f2 00        		.byte	0x0
 3172 00f3 05        		.uleb128 0x5
 3173 00f4 02        		.byte	0x2
 3174 00f5 0000 0000 		.long	.LM9
 3175 00f9 15        		.byte	0x15
 3176 00fa 00        		.byte	0x0
 3177 00fb 05        		.uleb128 0x5
 3178 00fc 02        		.byte	0x2
 3179 00fd 0000 0000 		.long	.LM10
 3180 0101 15        		.byte	0x15
 3181 0102 00        		.byte	0x0
 3182 0103 05        		.uleb128 0x5
 3183 0104 02        		.byte	0x2
 3184 0105 0000 0000 		.long	.LM11
 3185 0109 15        		.byte	0x15
 3186 010a 00        		.byte	0x0
 3187 010b 05        		.uleb128 0x5
 3188 010c 02        		.byte	0x2
 3189 010d 0000 0000 		.long	.LM12
 3190 0111 16        		.byte	0x16
 3191 0112 00        		.byte	0x0
 3192 0113 05        		.uleb128 0x5
 3193 0114 02        		.byte	0x2
 3194 0115 0000 0000 		.long	.LM13
 3195 0119 15        		.byte	0x15
 3196 011a 00        		.byte	0x0
GAS LISTING C:\Users\SHERE_~1\AppData\Local\Temp/cc1ChbVl.s 			page 58


 3197 011b 05        		.uleb128 0x5
 3198 011c 02        		.byte	0x2
 3199 011d 0000 0000 		.long	.LM14
 3200 0121 15        		.byte	0x15
 3201 0122 00        		.byte	0x0
 3202 0123 05        		.uleb128 0x5
 3203 0124 02        		.byte	0x2
 3204 0125 0000 0000 		.long	.LM15
 3205 0129 15        		.byte	0x15
 3206 012a 00        		.byte	0x0
 3207 012b 05        		.uleb128 0x5
 3208 012c 02        		.byte	0x2
 3209 012d 0000 0000 		.long	.LM16
 3210 0131 16        		.byte	0x16
 3211 0132 00        		.byte	0x0
 3212 0133 05        		.uleb128 0x5
 3213 0134 02        		.byte	0x2
 3214 0135 0000 0000 		.long	.LM17
 3215 0139 15        		.byte	0x15
 3216 013a 00        		.byte	0x0
 3217 013b 05        		.uleb128 0x5
 3218 013c 02        		.byte	0x2
 3219 013d 0000 0000 		.long	.LM18
 3220 0141 15        		.byte	0x15
 3221 0142 00        		.byte	0x0
 3222 0143 05        		.uleb128 0x5
 3223 0144 02        		.byte	0x2
 3224 0145 0000 0000 		.long	.LM19
 3225 0149 15        		.byte	0x15
 3226 014a 00        		.byte	0x0
 3227 014b 05        		.uleb128 0x5
 3228 014c 02        		.byte	0x2
 3229 014d 0000 0000 		.long	.LM20
 3230 0151 16        		.byte	0x16
 3231 0152 00        		.byte	0x0
 3232 0153 05        		.uleb128 0x5
 3233 0154 02        		.byte	0x2
 3234 0155 0000 0000 		.long	.LM21
 3235 0159 15        		.byte	0x15
 3236 015a 00        		.byte	0x0
 3237 015b 05        		.uleb128 0x5
 3238 015c 02        		.byte	0x2
 3239 015d 0000 0000 		.long	.LM22
 3240 0161 15        		.byte	0x15
 3241 0162 00        		.byte	0x0
 3242 0163 05        		.uleb128 0x5
 3243 0164 02        		.byte	0x2
 3244 0165 0000 0000 		.long	.LM23
 3245 0169 15        		.byte	0x15
 3246 016a 00        		.byte	0x0
 3247 016b 05        		.uleb128 0x5
 3248 016c 02        		.byte	0x2
 3249 016d 0000 0000 		.long	.LM24
 3250 0171 15        		.byte	0x15
 3251 0172 00        		.byte	0x0
 3252 0173 05        		.uleb128 0x5
 3253 0174 02        		.byte	0x2
GAS LISTING C:\Users\SHERE_~1\AppData\Local\Temp/cc1ChbVl.s 			page 59


 3254 0175 0000 0000 		.long	.LM25
 3255 0179 15        		.byte	0x15
 3256 017a 00        		.byte	0x0
 3257 017b 05        		.uleb128 0x5
 3258 017c 02        		.byte	0x2
 3259 017d 0000 0000 		.long	.LM26
 3260 0181 15        		.byte	0x15
 3261 0182 00        		.byte	0x0
 3262 0183 05        		.uleb128 0x5
 3263 0184 02        		.byte	0x2
 3264 0185 0000 0000 		.long	.LM27
 3265 0189 16        		.byte	0x16
 3266 018a 00        		.byte	0x0
 3267 018b 05        		.uleb128 0x5
 3268 018c 02        		.byte	0x2
 3269 018d 0000 0000 		.long	.LM28
 3270 0191 16        		.byte	0x16
 3271 0192 00        		.byte	0x0
 3272 0193 05        		.uleb128 0x5
 3273 0194 02        		.byte	0x2
 3274 0195 0000 0000 		.long	.LM29
 3275 0199 16        		.byte	0x16
 3276 019a 00        		.byte	0x0
 3277 019b 05        		.uleb128 0x5
 3278 019c 02        		.byte	0x2
 3279 019d 0000 0000 		.long	.LM30
 3280 01a1 16        		.byte	0x16
 3281 01a2 00        		.byte	0x0
 3282 01a3 05        		.uleb128 0x5
 3283 01a4 02        		.byte	0x2
 3284 01a5 0000 0000 		.long	.LM31
 3285 01a9 16        		.byte	0x16
 3286 01aa 00        		.byte	0x0
 3287 01ab 05        		.uleb128 0x5
 3288 01ac 02        		.byte	0x2
 3289 01ad 0000 0000 		.long	.LM32
 3290 01b1 16        		.byte	0x16
 3291 01b2 00        		.byte	0x0
 3292 01b3 05        		.uleb128 0x5
 3293 01b4 02        		.byte	0x2
 3294 01b5 0000 0000 		.long	.LM33
 3295 01b9 17        		.byte	0x17
 3296 01ba 00        		.byte	0x0
 3297 01bb 05        		.uleb128 0x5
 3298 01bc 02        		.byte	0x2
 3299 01bd 0000 0000 		.long	.LM34
 3300 01c1 01        		.byte	0x1
 3301 01c2 00        		.byte	0x0
 3302 01c3 05        		.uleb128 0x5
 3303 01c4 02        		.byte	0x2
 3304 01c5 0000 0000 		.long	.LM35
 3305 01c9 16        		.byte	0x16
 3306 01ca 00        		.byte	0x0
 3307 01cb 05        		.uleb128 0x5
 3308 01cc 02        		.byte	0x2
 3309 01cd 0000 0000 		.long	.LM36
 3310 01d1 15        		.byte	0x15
GAS LISTING C:\Users\SHERE_~1\AppData\Local\Temp/cc1ChbVl.s 			page 60


 3311 01d2 00        		.byte	0x0
 3312 01d3 05        		.uleb128 0x5
 3313 01d4 02        		.byte	0x2
 3314 01d5 0000 0000 		.long	.LM37
 3315 01d9 15        		.byte	0x15
 3316 01da 00        		.byte	0x0
 3317 01db 05        		.uleb128 0x5
 3318 01dc 02        		.byte	0x2
 3319 01dd 0000 0000 		.long	.LM38
 3320 01e1 15        		.byte	0x15
 3321 01e2 00        		.byte	0x0
 3322 01e3 05        		.uleb128 0x5
 3323 01e4 02        		.byte	0x2
 3324 01e5 0000 0000 		.long	.LM39
 3325 01e9 15        		.byte	0x15
 3326 01ea 00        		.byte	0x0
 3327 01eb 05        		.uleb128 0x5
 3328 01ec 02        		.byte	0x2
 3329 01ed 0000 0000 		.long	.LM40
 3330 01f1 15        		.byte	0x15
 3331 01f2 00        		.byte	0x0
 3332 01f3 05        		.uleb128 0x5
 3333 01f4 02        		.byte	0x2
 3334 01f5 0000 0000 		.long	.LM41
 3335 01f9 15        		.byte	0x15
 3336 01fa 00        		.byte	0x0
 3337 01fb 05        		.uleb128 0x5
 3338 01fc 02        		.byte	0x2
 3339 01fd 0000 0000 		.long	.LM42
 3340 0201 17        		.byte	0x17
 3341 0202 00        		.byte	0x0
 3342 0203 05        		.uleb128 0x5
 3343 0204 02        		.byte	0x2
 3344 0205 0000 0000 		.long	.LM43
 3345 0209 12        		.byte	0x12
 3346 020a 00        		.byte	0x0
 3347 020b 05        		.uleb128 0x5
 3348 020c 02        		.byte	0x2
 3349 020d 0000 0000 		.long	.LM44
 3350 0211 16        		.byte	0x16
 3351 0212 00        		.byte	0x0
 3352 0213 05        		.uleb128 0x5
 3353 0214 02        		.byte	0x2
 3354 0215 0000 0000 		.long	.LM45
 3355 0219 13        		.byte	0x13
 3356 021a 00        		.byte	0x0
 3357 021b 05        		.uleb128 0x5
 3358 021c 02        		.byte	0x2
 3359 021d 0000 0000 		.long	.LM46
 3360 0221 13        		.byte	0x13
 3361 0222 00        		.byte	0x0
 3362 0223 05        		.uleb128 0x5
 3363 0224 02        		.byte	0x2
 3364 0225 0000 0000 		.long	.LM47
 3365 0229 17        		.byte	0x17
 3366 022a 00        		.byte	0x0
 3367 022b 05        		.uleb128 0x5
GAS LISTING C:\Users\SHERE_~1\AppData\Local\Temp/cc1ChbVl.s 			page 61


 3368 022c 02        		.byte	0x2
 3369 022d 0000 0000 		.long	.LM48
 3370 0231 31        		.byte	0x31
 3371 0232 00        		.byte	0x0
 3372 0233 05        		.uleb128 0x5
 3373 0234 02        		.byte	0x2
 3374 0235 0000 0000 		.long	.LM49
 3375 0239 01        		.byte	0x1
 3376 023a 00        		.byte	0x0
 3377 023b 05        		.uleb128 0x5
 3378 023c 02        		.byte	0x2
 3379 023d 0000 0000 		.long	.LM50
 3380 0241 16        		.byte	0x16
 3381 0242 00        		.byte	0x0
 3382 0243 05        		.uleb128 0x5
 3383 0244 02        		.byte	0x2
 3384 0245 0000 0000 		.long	.LM51
 3385 0249 15        		.byte	0x15
 3386 024a 00        		.byte	0x0
 3387 024b 05        		.uleb128 0x5
 3388 024c 02        		.byte	0x2
 3389 024d 0000 0000 		.long	.LM52
 3390 0251 15        		.byte	0x15
 3391 0252 00        		.byte	0x0
 3392 0253 05        		.uleb128 0x5
 3393 0254 02        		.byte	0x2
 3394 0255 0000 0000 		.long	.LM53
 3395 0259 15        		.byte	0x15
 3396 025a 00        		.byte	0x0
 3397 025b 05        		.uleb128 0x5
 3398 025c 02        		.byte	0x2
 3399 025d 0000 0000 		.long	.LM54
 3400 0261 15        		.byte	0x15
 3401 0262 00        		.byte	0x0
 3402 0263 05        		.uleb128 0x5
 3403 0264 02        		.byte	0x2
 3404 0265 0000 0000 		.long	.LM55
 3405 0269 15        		.byte	0x15
 3406 026a 00        		.byte	0x0
 3407 026b 05        		.uleb128 0x5
 3408 026c 02        		.byte	0x2
 3409 026d 0000 0000 		.long	.LM56
 3410 0271 15        		.byte	0x15
 3411 0272 00        		.byte	0x0
 3412 0273 05        		.uleb128 0x5
 3413 0274 02        		.byte	0x2
 3414 0275 0000 0000 		.long	.LM57
 3415 0279 17        		.byte	0x17
 3416 027a 00        		.byte	0x0
 3417 027b 05        		.uleb128 0x5
 3418 027c 02        		.byte	0x2
 3419 027d 0000 0000 		.long	.LM58
 3420 0281 15        		.byte	0x15
 3421 0282 00        		.byte	0x0
 3422 0283 05        		.uleb128 0x5
 3423 0284 02        		.byte	0x2
 3424 0285 0000 0000 		.long	.LM59
GAS LISTING C:\Users\SHERE_~1\AppData\Local\Temp/cc1ChbVl.s 			page 62


 3425 0289 12        		.byte	0x12
 3426 028a 00        		.byte	0x0
 3427 028b 05        		.uleb128 0x5
 3428 028c 02        		.byte	0x2
 3429 028d 0000 0000 		.long	.LM60
 3430 0291 13        		.byte	0x13
 3431 0292 00        		.byte	0x0
 3432 0293 05        		.uleb128 0x5
 3433 0294 02        		.byte	0x2
 3434 0295 0000 0000 		.long	.LM61
 3435 0299 1A        		.byte	0x1a
 3436 029a 00        		.byte	0x0
 3437 029b 05        		.uleb128 0x5
 3438 029c 02        		.byte	0x2
 3439 029d 0000 0000 		.long	.LM62
 3440 02a1 16        		.byte	0x16
 3441 02a2 00        		.byte	0x0
 3442 02a3 05        		.uleb128 0x5
 3443 02a4 02        		.byte	0x2
 3444 02a5 0000 0000 		.long	.LM63
 3445 02a9 01        		.byte	0x1
 3446 02aa 00        		.byte	0x0
 3447 02ab 05        		.uleb128 0x5
 3448 02ac 02        		.byte	0x2
 3449 02ad 0000 0000 		.long	.LM64
 3450 02b1 16        		.byte	0x16
 3451 02b2 00        		.byte	0x0
 3452 02b3 05        		.uleb128 0x5
 3453 02b4 02        		.byte	0x2
 3454 02b5 0000 0000 		.long	.LM65
 3455 02b9 17        		.byte	0x17
 3456 02ba 00        		.byte	0x0
 3457 02bb 05        		.uleb128 0x5
 3458 02bc 02        		.byte	0x2
 3459 02bd 0000 0000 		.long	.LM66
 3460 02c1 15        		.byte	0x15
 3461 02c2 00        		.byte	0x0
 3462 02c3 05        		.uleb128 0x5
 3463 02c4 02        		.byte	0x2
 3464 02c5 0000 0000 		.long	.LM67
 3465 02c9 15        		.byte	0x15
 3466 02ca 00        		.byte	0x0
 3467 02cb 05        		.uleb128 0x5
 3468 02cc 02        		.byte	0x2
 3469 02cd 0000 0000 		.long	.LM68
 3470 02d1 17        		.byte	0x17
 3471 02d2 00        		.byte	0x0
 3472 02d3 05        		.uleb128 0x5
 3473 02d4 02        		.byte	0x2
 3474 02d5 0000 0000 		.long	.LM69
 3475 02d9 15        		.byte	0x15
 3476 02da 00        		.byte	0x0
 3477 02db 05        		.uleb128 0x5
 3478 02dc 02        		.byte	0x2
 3479 02dd 0000 0000 		.long	.LM70
 3480 02e1 15        		.byte	0x15
 3481 02e2 00        		.byte	0x0
GAS LISTING C:\Users\SHERE_~1\AppData\Local\Temp/cc1ChbVl.s 			page 63


 3482 02e3 05        		.uleb128 0x5
 3483 02e4 02        		.byte	0x2
 3484 02e5 0000 0000 		.long	.LM71
 3485 02e9 03        		.byte	0x3
 3486 02ea 74        		.sleb128 -12
 3487 02eb 01        		.byte	0x1
 3488 02ec 00        		.byte	0x0
 3489 02ed 05        		.uleb128 0x5
 3490 02ee 02        		.byte	0x2
 3491 02ef 0000 0000 		.long	.LM72
 3492 02f3 21        		.byte	0x21
 3493 02f4 00        		.byte	0x0
 3494 02f5 05        		.uleb128 0x5
 3495 02f6 02        		.byte	0x2
 3496 02f7 0000 0000 		.long	.LM73
 3497 02fb 19        		.byte	0x19
 3498 02fc 00        		.byte	0x0
 3499 02fd 05        		.uleb128 0x5
 3500 02fe 02        		.byte	0x2
 3501 02ff 0000 0000 		.long	.LM74
 3502 0303 13        		.byte	0x13
 3503 0304 00        		.byte	0x0
 3504 0305 05        		.uleb128 0x5
 3505 0306 02        		.byte	0x2
 3506 0307 0000 0000 		.long	.LM75
 3507 030b 12        		.byte	0x12
 3508 030c 00        		.byte	0x0
 3509 030d 05        		.uleb128 0x5
 3510 030e 02        		.byte	0x2
 3511 030f 0000 0000 		.long	.LM76
 3512 0313 13        		.byte	0x13
 3513 0314 00        		.byte	0x0
 3514 0315 05        		.uleb128 0x5
 3515 0316 02        		.byte	0x2
 3516 0317 0000 0000 		.long	.LM77
 3517 031b 13        		.byte	0x13
 3518 031c 00        		.byte	0x0
 3519 031d 05        		.uleb128 0x5
 3520 031e 02        		.byte	0x2
 3521 031f 0000 0000 		.long	.LM78
 3522 0323 1E        		.byte	0x1e
 3523 0324 00        		.byte	0x0
 3524 0325 05        		.uleb128 0x5
 3525 0326 02        		.byte	0x2
 3526 0327 0000 0000 		.long	.LM79
 3527 032b 16        		.byte	0x16
 3528 032c 00        		.byte	0x0
 3529 032d 05        		.uleb128 0x5
 3530 032e 02        		.byte	0x2
 3531 032f 0000 0000 		.long	.LM80
 3532 0333 01        		.byte	0x1
 3533 0334 00        		.byte	0x0
 3534 0335 05        		.uleb128 0x5
 3535 0336 02        		.byte	0x2
 3536 0337 0000 0000 		.long	.LM81
 3537 033b 16        		.byte	0x16
 3538 033c 00        		.byte	0x0
GAS LISTING C:\Users\SHERE_~1\AppData\Local\Temp/cc1ChbVl.s 			page 64


 3539 033d 05        		.uleb128 0x5
 3540 033e 02        		.byte	0x2
 3541 033f 0000 0000 		.long	.LM82
 3542 0343 15        		.byte	0x15
 3543 0344 00        		.byte	0x0
 3544 0345 05        		.uleb128 0x5
 3545 0346 02        		.byte	0x2
 3546 0347 0000 0000 		.long	.LM83
 3547 034b 15        		.byte	0x15
 3548 034c 00        		.byte	0x0
 3549 034d 05        		.uleb128 0x5
 3550 034e 02        		.byte	0x2
 3551 034f 0000 0000 		.long	.LM84
 3552 0353 15        		.byte	0x15
 3553 0354 00        		.byte	0x0
 3554 0355 05        		.uleb128 0x5
 3555 0356 02        		.byte	0x2
 3556 0357 0000 0000 		.long	.LM85
 3557 035b 15        		.byte	0x15
 3558 035c 00        		.byte	0x0
 3559 035d 05        		.uleb128 0x5
 3560 035e 02        		.byte	0x2
 3561 035f 0000 0000 		.long	.LM86
 3562 0363 15        		.byte	0x15
 3563 0364 00        		.byte	0x0
 3564 0365 05        		.uleb128 0x5
 3565 0366 02        		.byte	0x2
 3566 0367 0000 0000 		.long	.LM87
 3567 036b 15        		.byte	0x15
 3568 036c 00        		.byte	0x0
 3569 036d 05        		.uleb128 0x5
 3570 036e 02        		.byte	0x2
 3571 036f 0000 0000 		.long	.LM88
 3572 0373 1B        		.byte	0x1b
 3573 0374 00        		.byte	0x0
 3574 0375 05        		.uleb128 0x5
 3575 0376 02        		.byte	0x2
 3576 0377 0000 0000 		.long	.LM89
 3577 037b 11        		.byte	0x11
 3578 037c 00        		.byte	0x0
 3579 037d 05        		.uleb128 0x5
 3580 037e 02        		.byte	0x2
 3581 037f 0000 0000 		.long	.LM90
 3582 0383 15        		.byte	0x15
 3583 0384 00        		.byte	0x0
 3584 0385 05        		.uleb128 0x5
 3585 0386 02        		.byte	0x2
 3586 0387 0000 0000 		.long	.LM91
 3587 038b 16        		.byte	0x16
 3588 038c 00        		.byte	0x0
 3589 038d 05        		.uleb128 0x5
 3590 038e 02        		.byte	0x2
 3591 038f 0000 0000 		.long	.LM92
 3592 0393 16        		.byte	0x16
 3593 0394 00        		.byte	0x0
 3594 0395 05        		.uleb128 0x5
 3595 0396 02        		.byte	0x2
GAS LISTING C:\Users\SHERE_~1\AppData\Local\Temp/cc1ChbVl.s 			page 65


 3596 0397 0000 0000 		.long	.LM93
 3597 039b 16        		.byte	0x16
 3598 039c 00        		.byte	0x0
 3599 039d 05        		.uleb128 0x5
 3600 039e 02        		.byte	0x2
 3601 039f 0000 0000 		.long	.LM94
 3602 03a3 0C        		.byte	0xc
 3603 03a4 00        		.byte	0x0
 3604 03a5 05        		.uleb128 0x5
 3605 03a6 02        		.byte	0x2
 3606 03a7 0000 0000 		.long	.LM95
 3607 03ab 13        		.byte	0x13
 3608 03ac 00        		.byte	0x0
 3609 03ad 05        		.uleb128 0x5
 3610 03ae 02        		.byte	0x2
 3611 03af 0000 0000 		.long	.LM96
 3612 03b3 21        		.byte	0x21
 3613 03b4 00        		.byte	0x0
 3614 03b5 05        		.uleb128 0x5
 3615 03b6 02        		.byte	0x2
 3616 03b7 0000 0000 		.long	.LM97
 3617 03bb 17        		.byte	0x17
 3618 03bc 00        		.byte	0x0
 3619 03bd 05        		.uleb128 0x5
 3620 03be 02        		.byte	0x2
 3621 03bf 0000 0000 		.long	.LM98
 3622 03c3 15        		.byte	0x15
 3623 03c4 00        		.byte	0x0
 3624 03c5 05        		.uleb128 0x5
 3625 03c6 02        		.byte	0x2
 3626 03c7 0000 0000 		.long	.LM99
 3627 03cb 15        		.byte	0x15
 3628 03cc 00        		.byte	0x0
 3629 03cd 05        		.uleb128 0x5
 3630 03ce 02        		.byte	0x2
 3631 03cf 0000 0000 		.long	.LM100
 3632 03d3 15        		.byte	0x15
 3633 03d4 00        		.byte	0x0
 3634 03d5 05        		.uleb128 0x5
 3635 03d6 02        		.byte	0x2
 3636 03d7 0000 0000 		.long	.LM101
 3637 03db 15        		.byte	0x15
 3638 03dc 00        		.byte	0x0
 3639 03dd 05        		.uleb128 0x5
 3640 03de 02        		.byte	0x2
 3641 03df 0000 0000 		.long	.LM102
 3642 03e3 15        		.byte	0x15
 3643 03e4 00        		.byte	0x0
 3644 03e5 05        		.uleb128 0x5
 3645 03e6 02        		.byte	0x2
 3646 03e7 0000 0000 		.long	.LM103
 3647 03eb 17        		.byte	0x17
 3648 03ec 00        		.byte	0x0
 3649 03ed 05        		.uleb128 0x5
 3650 03ee 02        		.byte	0x2
 3651 03ef 0000 0000 		.long	.LM104
 3652 03f3 18        		.byte	0x18
GAS LISTING C:\Users\SHERE_~1\AppData\Local\Temp/cc1ChbVl.s 			page 66


 3653 03f4 00        		.byte	0x0
 3654 03f5 05        		.uleb128 0x5
 3655 03f6 02        		.byte	0x2
 3656 03f7 0000 0000 		.long	.LM105
 3657 03fb 15        		.byte	0x15
 3658 03fc 00        		.byte	0x0
 3659 03fd 05        		.uleb128 0x5
 3660 03fe 02        		.byte	0x2
 3661 03ff 0000 0000 		.long	.LM106
 3662 0403 13        		.byte	0x13
 3663 0404 00        		.byte	0x0
 3664 0405 05        		.uleb128 0x5
 3665 0406 02        		.byte	0x2
 3666 0407 0000 0000 		.long	.LM107
 3667 040b 16        		.byte	0x16
 3668 040c 00        		.byte	0x0
 3669 040d 05        		.uleb128 0x5
 3670 040e 02        		.byte	0x2
 3671 040f 0000 0000 		.long	.LM108
 3672 0413 15        		.byte	0x15
 3673 0414 00        		.byte	0x0
 3674 0415 05        		.uleb128 0x5
 3675 0416 02        		.byte	0x2
 3676 0417 0000 0000 		.long	.LM109
 3677 041b 15        		.byte	0x15
 3678 041c 00        		.byte	0x0
 3679 041d 05        		.uleb128 0x5
 3680 041e 02        		.byte	0x2
 3681 041f 0000 0000 		.long	.LM110
 3682 0423 15        		.byte	0x15
 3683 0424 00        		.byte	0x0
 3684 0425 05        		.uleb128 0x5
 3685 0426 02        		.byte	0x2
 3686 0427 0000 0000 		.long	.LM111
 3687 042b 1C        		.byte	0x1c
 3688 042c 00        		.byte	0x0
 3689 042d 05        		.uleb128 0x5
 3690 042e 02        		.byte	0x2
 3691 042f 0000 0000 		.long	.LM112
 3692 0433 0E        		.byte	0xe
 3693 0434 00        		.byte	0x0
 3694 0435 05        		.uleb128 0x5
 3695 0436 02        		.byte	0x2
 3696 0437 0000 0000 		.long	.LM113
 3697 043b 17        		.byte	0x17
 3698 043c 00        		.byte	0x0
 3699 043d 05        		.uleb128 0x5
 3700 043e 02        		.byte	0x2
 3701 043f 0000 0000 		.long	.LM114
 3702 0443 11        		.byte	0x11
 3703 0444 00        		.byte	0x0
 3704 0445 05        		.uleb128 0x5
 3705 0446 02        		.byte	0x2
 3706 0447 0000 0000 		.long	.LM115
 3707 044b 15        		.byte	0x15
 3708 044c 00        		.byte	0x0
 3709 044d 05        		.uleb128 0x5
GAS LISTING C:\Users\SHERE_~1\AppData\Local\Temp/cc1ChbVl.s 			page 67


 3710 044e 02        		.byte	0x2
 3711 044f 0000 0000 		.long	.LM116
 3712 0453 15        		.byte	0x15
 3713 0454 00        		.byte	0x0
 3714 0455 05        		.uleb128 0x5
 3715 0456 02        		.byte	0x2
 3716 0457 0000 0000 		.long	.LM117
 3717 045b 15        		.byte	0x15
 3718 045c 00        		.byte	0x0
 3719 045d 05        		.uleb128 0x5
 3720 045e 02        		.byte	0x2
 3721 045f 0000 0000 		.long	.LM118
 3722 0463 15        		.byte	0x15
 3723 0464 00        		.byte	0x0
 3724 0465 05        		.uleb128 0x5
 3725 0466 02        		.byte	0x2
 3726 0467 0000 0000 		.long	.LM119
 3727 046b 16        		.byte	0x16
 3728 046c 00        		.byte	0x0
 3729 046d 05        		.uleb128 0x5
 3730 046e 02        		.byte	0x2
 3731 046f 0000 0000 		.long	.LM120
 3732 0473 13        		.byte	0x13
 3733 0474 00        		.byte	0x0
 3734 0475 05        		.uleb128 0x5
 3735 0476 02        		.byte	0x2
 3736 0477 0000 0000 		.long	.LM121
 3737 047b 13        		.byte	0x13
 3738 047c 00        		.byte	0x0
 3739 047d 05        		.uleb128 0x5
 3740 047e 02        		.byte	0x2
 3741 047f 0000 0000 		.long	.LM122
 3742 0483 0F        		.byte	0xf
 3743 0484 00        		.byte	0x0
 3744 0485 05        		.uleb128 0x5
 3745 0486 02        		.byte	0x2
 3746 0487 0000 0000 		.long	.LM123
 3747 048b 1D        		.byte	0x1d
 3748 048c 00        		.byte	0x0
 3749 048d 05        		.uleb128 0x5
 3750 048e 02        		.byte	0x2
 3751 048f 0000 0000 		.long	.LM124
 3752 0493 15        		.byte	0x15
 3753 0494 00        		.byte	0x0
 3754 0495 05        		.uleb128 0x5
 3755 0496 02        		.byte	0x2
 3756 0497 0000 0000 		.long	.LM125
 3757 049b 15        		.byte	0x15
 3758 049c 00        		.byte	0x0
 3759 049d 05        		.uleb128 0x5
 3760 049e 02        		.byte	0x2
 3761 049f 0000 0000 		.long	.LM126
 3762 04a3 15        		.byte	0x15
 3763 04a4 00        		.byte	0x0
 3764 04a5 05        		.uleb128 0x5
 3765 04a6 02        		.byte	0x2
 3766 04a7 0000 0000 		.long	.LM127
GAS LISTING C:\Users\SHERE_~1\AppData\Local\Temp/cc1ChbVl.s 			page 68


 3767 04ab 16        		.byte	0x16
 3768 04ac 00        		.byte	0x0
 3769 04ad 05        		.uleb128 0x5
 3770 04ae 02        		.byte	0x2
 3771 04af 0000 0000 		.long	.LM128
 3772 04b3 13        		.byte	0x13
 3773 04b4 00        		.byte	0x0
 3774 04b5 05        		.uleb128 0x5
 3775 04b6 02        		.byte	0x2
 3776 04b7 0000 0000 		.long	.LM129
 3777 04bb 17        		.byte	0x17
 3778 04bc 00        		.byte	0x0
 3779 04bd 05        		.uleb128 0x5
 3780 04be 02        		.byte	0x2
 3781 04bf 0000 0000 		.long	.LM130
 3782 04c3 15        		.byte	0x15
 3783 04c4 00        		.byte	0x0
 3784 04c5 05        		.uleb128 0x5
 3785 04c6 02        		.byte	0x2
 3786 04c7 0000 0000 		.long	.LM131
 3787 04cb 15        		.byte	0x15
 3788 04cc 00        		.byte	0x0
 3789 04cd 05        		.uleb128 0x5
 3790 04ce 02        		.byte	0x2
 3791 04cf 0000 0000 		.long	.LM132
 3792 04d3 17        		.byte	0x17
 3793 04d4 00        		.byte	0x0
 3794 04d5 05        		.uleb128 0x5
 3795 04d6 02        		.byte	0x2
 3796 04d7 0000 0000 		.long	.LM133
 3797 04db 01        		.byte	0x1
 3798 04dc 00        		.byte	0x0
 3799 04dd 05        		.uleb128 0x5
 3800 04de 02        		.byte	0x2
 3801 04df 0000 0000 		.long	.LM134
 3802 04e3 17        		.byte	0x17
 3803 04e4 00        		.byte	0x0
 3804 04e5 05        		.uleb128 0x5
 3805 04e6 02        		.byte	0x2
 3806 04e7 0000 0000 		.long	.LM135
 3807 04eb 13        		.byte	0x13
 3808 04ec 00        		.byte	0x0
 3809 04ed 05        		.uleb128 0x5
 3810 04ee 02        		.byte	0x2
 3811 04ef 0000 0000 		.long	.LM136
 3812 04f3 16        		.byte	0x16
 3813 04f4 00        		.byte	0x0
 3814 04f5 05        		.uleb128 0x5
 3815 04f6 02        		.byte	0x2
 3816 04f7 0000 0000 		.long	.LM137
 3817 04fb 03        		.byte	0x3
 3818 04fc AC7E      		.sleb128 -212
 3819 04fe 01        		.byte	0x1
 3820 04ff 00        		.byte	0x0
 3821 0500 05        		.uleb128 0x5
 3822 0501 02        		.byte	0x2
 3823 0502 0000 0000 		.long	.LM138
GAS LISTING C:\Users\SHERE_~1\AppData\Local\Temp/cc1ChbVl.s 			page 69


 3824 0506 17        		.byte	0x17
 3825 0507 00        		.byte	0x0
 3826 0508 05        		.uleb128 0x5
 3827 0509 02        		.byte	0x2
 3828 050a 0000 0000 		.long	.LM139
 3829 050e 15        		.byte	0x15
 3830 050f 00        		.byte	0x0
 3831 0510 05        		.uleb128 0x5
 3832 0511 02        		.byte	0x2
 3833 0512 0000 0000 		.long	.LM140
 3834 0516 17        		.byte	0x17
 3835 0517 00        		.byte	0x0
 3836 0518 05        		.uleb128 0x5
 3837 0519 02        		.byte	0x2
 3838 051a 0000 0000 		.long	.LM141
 3839 051e 15        		.byte	0x15
 3840 051f 00        		.byte	0x0
 3841 0520 05        		.uleb128 0x5
 3842 0521 02        		.byte	0x2
 3843 0522 0000 0000 		.long	.LM142
 3844 0526 16        		.byte	0x16
 3845 0527 00        		.byte	0x0
 3846 0528 05        		.uleb128 0x5
 3847 0529 02        		.byte	0x2
 3848 052a 0000 0000 		.long	.LM143
 3849 052e 17        		.byte	0x17
 3850 052f 00        		.byte	0x0
 3851 0530 05        		.uleb128 0x5
 3852 0531 02        		.byte	0x2
 3853 0532 0000 0000 		.long	.Letext0
 3854 0536 00        		.byte	0x0
 3855 0537 01        		.uleb128 0x1
 3856 0538 01        		.byte	0x1
 3857               	.LELT0:
 3858 0539 1600 0000 		.section	.debug_str,"MS",@progbits,1
 3858      0200 1000 
 3858      0000 0101 
 3858      FB0E 0A00 
 3858      0101 0101 
 3859               	.LASF47:
 3860 0000 696E 6974 		.string	"init_lcd"
 3860      5F6C 6364 
 3860      00
 3861               	.LASF27:
 3862 0009 7365 745F 		.string	"set_orientation"
 3862      6F72 6965 
 3862      6E74 6174 
 3862      696F 6E00 
 3863               	.LASF43:
 3864 0019 474E 5520 		.string	"GNU C 4.3.3"
 3864      4320 342E 
 3864      332E 3300 
 3865               	.LASF21:
 3866 0025 7269 6768 		.string	"right"
 3866      7400 
 3867               	.LASF25:
 3868 002b 6765 745F 		.string	"get_width"
GAS LISTING C:\Users\SHERE_~1\AppData\Local\Temp/cc1ChbVl.s 			page 70


 3868      7769 6474 
 3868      6800 
 3869               	.LASF45:
 3870 0035 433A 5C55 		.string	"C:\\Users\\shere_000\\Documents\\Year 2\\Smart Meter\\Proj\\lcdlib"
 3870      7365 7273 
 3870      5C73 6865 
 3870      7265 5F30 
 3870      3030 5C44 
 3871               	.LASF9:
 3872 0071 7072 6F67 		.string	"prog_char"
 3872      5F63 6861 
 3872      7200 
 3873               	.LASF30:
 3874 007b 6669 6C6C 		.string	"fill_rectangle_indexed_scale"
 3874      5F72 6563 
 3874      7461 6E67 
 3874      6C65 5F69 
 3874      6E64 6578 
 3875               	.LASF23:
 3876 0098 7265 6374 		.string	"rectangle"
 3876      616E 676C 
 3876      6500 
 3877               	.LASF46:
 3878 00a2 636C 6561 		.string	"clear_screen"
 3878      725F 7363 
 3878      7265 656E 
 3878      00
 3879               	.LASF2:
 3880 00af 7569 6E74 		.string	"uint8_t"
 3880      385F 7400 
 3881               	.LASF32:
 3882 00b7 6269 746D 		.string	"bitmap"
 3882      6170 00
 3883               	.LASF37:
 3884 00be 5F5F 6164 		.string	"__addr16"
 3884      6472 3136 
 3884      00
 3885               	.LASF15:
 3886 00c7 7769 6474 		.string	"width"
 3886      6800 
 3887               	.LASF7:
 3888 00cd 6C6F 6E67 		.string	"long long int"
 3888      206C 6F6E 
 3888      6720 696E 
 3888      7400 
 3889               	.LASF41:
 3890 00db 666F 6E74 		.string	"font5x7"
 3890      3578 3700 
 3891               	.LASF35:
 3892 00e3 6269 7473 		.string	"bits"
 3892      00
 3893               	.LASF10:
 3894 00e8 4E6F 7274 		.string	"North"
 3894      6800 
 3895               	.LASF5:
 3896 00ee 6C6F 6E67 		.string	"long int"
 3896      2069 6E74 
GAS LISTING C:\Users\SHERE_~1\AppData\Local\Temp/cc1ChbVl.s 			page 71


 3896      00
 3897               	.LASF17:
 3898 00f7 6F72 6965 		.string	"orient"
 3898      6E74 00
 3899               	.LASF18:
 3900 00fe 666F 7265 		.string	"foreground"
 3900      6772 6F75 
 3900      6E64 00
 3901               	.LASF24:
 3902 0109 6765 745F 		.string	"get_orientation"
 3902      6F72 6965 
 3902      6E74 6174 
 3902      696F 6E00 
 3903               	.LASF33:
 3904 0119 6469 7370 		.string	"display_char"
 3904      6C61 795F 
 3904      6368 6172 
 3904      00
 3905               	.LASF1:
 3906 0126 756E 7369 		.string	"unsigned char"
 3906      676E 6564 
 3906      2063 6861 
 3906      7200 
 3907               	.LASF13:
 3908 0134 4561 7374 		.string	"East"
 3908      00
 3909               	.LASF22:
 3910 0139 626F 7474 		.string	"bottom"
 3910      6F6D 00
 3911               	.LASF0:
 3912 0140 7369 676E 		.string	"signed char"
 3912      6564 2063 
 3912      6861 7200 
 3913               	.LASF8:
 3914 014c 6C6F 6E67 		.string	"long long unsigned int"
 3914      206C 6F6E 
 3914      6720 756E 
 3914      7369 676E 
 3914      6564 2069 
 3915               	.LASF16:
 3916 0163 6865 6967 		.string	"height"
 3916      6874 00
 3917               	.LASF4:
 3918 016a 756E 7369 		.string	"unsigned int"
 3918      676E 6564 
 3918      2069 6E74 
 3918      00
 3919               	.LASF3:
 3920 0177 7569 6E74 		.string	"uint16_t"
 3920      3136 5F74 
 3920      00
 3921               	.LASF38:
 3922 0180 5F5F 7265 		.string	"__result"
 3922      7375 6C74 
 3922      00
 3923               	.LASF14:
 3924 0189 6F72 6965 		.string	"orientation"
GAS LISTING C:\Users\SHERE_~1\AppData\Local\Temp/cc1ChbVl.s 			page 72


 3924      6E74 6174 
 3924      696F 6E00 
 3925               	.LASF39:
 3926 0195 6368 6172 		.string	"char"
 3926      00
 3927               	.LASF20:
 3928 019a 6C65 6674 		.string	"left"
 3928      00
 3929               	.LASF44:
 3930 019f 6C63 642E 		.string	"lcd.c"
 3930      6300 
 3931               	.LASF11:
 3932 01a5 5765 7374 		.string	"West"
 3932      00
 3933               	.LASF40:
 3934 01aa 6469 7370 		.string	"display_string"
 3934      6C61 795F 
 3934      7374 7269 
 3934      6E67 00
 3935               	.LASF28:
 3936 01b9 6669 6C6C 		.string	"fill_rectangle"
 3936      5F72 6563 
 3936      7461 6E67 
 3936      6C65 00
 3937               	.LASF6:
 3938 01c8 6C6F 6E67 		.string	"long unsigned int"
 3938      2075 6E73 
 3938      6967 6E65 
 3938      6420 696E 
 3938      7400 
 3939               	.LASF12:
 3940 01da 536F 7574 		.string	"South"
 3940      6800 
 3941               	.LASF31:
 3942 01e0 6669 6C6C 		.string	"fill_rectangle_bitmap"
 3942      5F72 6563 
 3942      7461 6E67 
 3942      6C65 5F62 
 3942      6974 6D61 
 3943               	.LASF42:
 3944 01f6 6469 7370 		.string	"display"
 3944      6C61 7900 
 3945               	.LASF29:
 3946 01fe 6669 6C6C 		.string	"fill_rectangle_indexed"
 3946      5F72 6563 
 3946      7461 6E67 
 3946      6C65 5F69 
 3946      6E64 6578 
 3947               	.LASF26:
 3948 0215 6765 745F 		.string	"get_height"
 3948      6865 6967 
 3948      6874 00
 3949               	.LASF36:
 3950 0220 6D61 736B 		.string	"mask"
 3950      00
 3951               	.LASF34:
 3952 0225 6664 6174 		.string	"fdata"
GAS LISTING C:\Users\SHERE_~1\AppData\Local\Temp/cc1ChbVl.s 			page 73


 3952      6100 
 3953               	.LASF19:
 3954 022b 6261 636B 		.string	"background"
 3954      6772 6F75 
 3954      6E64 00
 3955               	.global __do_copy_data
GAS LISTING C:\Users\SHERE_~1\AppData\Local\Temp/cc1ChbVl.s 			page 74


DEFINED SYMBOLS
                            *ABS*:00000000 lcd.c
C:\Users\SHERE_~1\AppData\Local\Temp/cc1ChbVl.s:2      *ABS*:0000003f __SREG__
C:\Users\SHERE_~1\AppData\Local\Temp/cc1ChbVl.s:3      *ABS*:0000003e __SP_H__
C:\Users\SHERE_~1\AppData\Local\Temp/cc1ChbVl.s:4      *ABS*:0000003d __SP_L__
C:\Users\SHERE_~1\AppData\Local\Temp/cc1ChbVl.s:5      *ABS*:00000034 __CCP__
C:\Users\SHERE_~1\AppData\Local\Temp/cc1ChbVl.s:6      *ABS*:00000000 __tmp_reg__
C:\Users\SHERE_~1\AppData\Local\Temp/cc1ChbVl.s:7      *ABS*:00000001 __zero_reg__
C:\Users\SHERE_~1\AppData\Local\Temp/cc1ChbVl.s:18     .text:00000000 set_orientation
C:\Users\SHERE_~1\AppData\Local\Temp/cc1ChbVl.s:1366   .data:00000000 display
C:\Users\SHERE_~1\AppData\Local\Temp/cc1ChbVl.s:170    .text:00000108 get_orientation
C:\Users\SHERE_~1\AppData\Local\Temp/cc1ChbVl.s:184    .text:00000112 get_width
C:\Users\SHERE_~1\AppData\Local\Temp/cc1ChbVl.s:198    .text:0000011c get_height
C:\Users\SHERE_~1\AppData\Local\Temp/cc1ChbVl.s:212    .text:00000126 fill_rectangle
C:\Users\SHERE_~1\AppData\Local\Temp/cc1ChbVl.s:363    .text:00000204 fill_rectangle_indexed
C:\Users\SHERE_~1\AppData\Local\Temp/cc1ChbVl.s:519    .text:000002ec fill_rectangle_indexed_scale
C:\Users\SHERE_~1\AppData\Local\Temp/cc1ChbVl.s:738    .text:00000452 fill_rectangle_bitmap
C:\Users\SHERE_~1\AppData\Local\Temp/cc1ChbVl.s:959    .text:000005a0 clear_screen
C:\Users\SHERE_~1\AppData\Local\Temp/cc1ChbVl.s:1026   .text:0000061e display_char
C:\Users\SHERE_~1\AppData\Local\Temp/cc1ChbVl.s:1296   .text:000007ba display_string
C:\Users\SHERE_~1\AppData\Local\Temp/cc1ChbVl.s:1336   .text:000007e0 init_lcd

UNDEFINED SYMBOLS
font5x7
init_display_controller
__do_copy_data
